(dp0
S'top10_likemost_posts'
p1
(lp2
(dp3
Vfrom
p4
(dp5
Vcategory
p6
VPolitician
p7
sVid
p8
V118250504903757
p9
sVname
p10
V\u99ac\u82f1\u4e5d\u7e3d\u7d71
p11
ssS'top10_comments'
p12
(lp13
(dp14
Vfrom
p15
(dp16
Vname
p17
V\u5289\u51a0\u5f62
p18
sVid
p19
V1728050319
p20
ssVmessage
p21
V\u9752\u5e74\u5c31\u696d\u53ca\u8cb7\u623f\u5b50\u662f\u91cd\u9ede\u3002\u5de5\u4f5c\u4e00\u8f29\u5b50\u8cb7\u4e0d\u8d77\u623f\u5b50\u3002
p22
sVid
p23
V118250504903757_274768455918627_3261786
p24
sa(dp25
Vfrom
p26
(dp27
Vname
p28
VGina Lin
p29
sVid
p30
V100000233765572
p31
ssVmessage
p32
VYA~~
p33
sVid
p34
V118250504903757_274768455918627_3267685
p35
sa(dp36
Vfrom
p37
(dp38
Vname
p39
V\u5728\u96ea\u68a8
p40
sVid
p41
V100000234610043
p42
ssVmessage
p43
V\u842c\u6b72!!
p44
sVid
p45
V118250504903757_274768455918627_3244070
p46
sa(dp47
Vfrom
p48
(dp49
Vname
p50
VFang-wen Lee
p51
sVid
p52
V1611850972
p53
ssVmessage
p54
V\u606d\u559c!!!
p55
sVid
p56
V118250504903757_274768455918627_3244069
p57
sa(dp58
Vfrom
p59
(dp60
Vname
p61
V\u6797\u67cf\u5b87
p62
sVid
p63
V646432094
p64
ssVmessage
p65
V\u606d\u559c\u606d\u559c!!!!!
p66
sVid
p67
V118250504903757_274768455918627_3244071
p68
sa(dp69
Vfrom
p70
(dp71
Vname
p72
V\u7cdf\u4e86
p73
sVid
p74
V100000434516357
p75
ssVmessage
p76
V\u52a0\u6cb9\u963f:)~
p77
sVid
p78
V118250504903757_274768455918627_3244072
p79
sa(dp80
Vfrom
p81
(dp82
Vname
p83
V\u912d\u6587\u742a
p84
sVid
p85
V100001118161135
p86
ssVmessage
p87
V\u8b9a
p88
sVid
p89
V118250504903757_274768455918627_3244077
p90
sa(dp91
Vfrom
p92
(dp93
Vname
p94
V\u8881\u7fce\u73b2
p95
sVid
p96
V100000218634904
p97
ssVmessage
p98
V\u7b2c\u4e00\u500b
p99
sVid
p100
V118250504903757_274768455918627_3244076
p101
sa(dp102
Vfrom
p103
(dp104
Vname
p105
V\u90b1\u5ada\u8431
p106
sVid
p107
V100000203749596
p108
ssVmessage
p109
V\u54c8\u54c8\u54c8 \u8d0f\u4e86
p110
sVid
p111
V118250504903757_274768455918627_3244074
p112
sa(dp113
Vfrom
p114
(dp115
Vname
p116
VBo Jun Wang
p117
sVid
p118
V100000836917344
p119
ssVmessage
p120
V\u606d\u559c\u5c0f\u99ac\u54e5^^
p121
sVid
p122
V118250504903757_274768455918627_3244083
p123
sasVupdated_time
p124
V2012-01-14T14:03:26+0000
p125
sVlikes
p126
(dp127
Vcount
p128
I250217
ssVmessage
p129
V\u606d\u559c\u5927\u5bb6\uff0c\u6211\u5011\u8d0f\u4e86\uff01\u9019\u4e0d\u662f\u99ac\u82f1\u4e5d\u500b\u4eba\u7684\u52dd\u5229\uff0c\u800c\u662f\u81fa\u7063\u4eba\u6c11\u7684\u52dd\u5229\uff0c\u662f\u4e00\u689d\u8ffd\u6c42\u6e05\u5ec9\u3001\u7e41\u69ae\u3001\u8207\u548c\u5e73\u7684\u53f0\u7063\u8def\u7dda\u7684\u52dd\u5229\u3002\u53f0\u7063\u4eba\u6c11\u7d66\u4e86\u6211\u6e05\u695a\u7684\u8a0a\u606f\uff0c\u8981\u6211\u7e7c\u7e8c\u671d\u9019\u6a23\u7684\u8def\u7dda\u5805\u6301\u4e0b\u53bb\uff1b\u53f0\u7063\u4eba\u6c11\u4e5f\u7d66\u4e86\u6211\u660e\u78ba\u7684\u4f7f\u547d\uff0c\u8981\u6211\u76e1\u529b\u5b8c\u6210\u5275\u9020\u53f0\u7063\u65b0\u6b77\u53f2\u6240\u9700\u8981\u7684\u6539\u9769\u3002\u6211\u5728\u9019\u88e1\u8981\u611f\u8b1d\u5927\u5bb6\u7d66\u6211\u7684\u652f\u6301\uff0c\u6211\u4e5f\u627f\u8afe\uff0c\u672a\u4f86\u56db\u5e74\u6211\u6703\u5168\u529b\u4ee5\u8d74\uff0c\u7d55\u5c0d\u4e0d\u6703\u8f9c\u8ca0\u5927\u5bb6\u5c0d\u6211\u7684\u671f\u8a31\uff01\u000a    \u9019\u6b21\uff0c\u6211\u5011\u7372\u5f97\u9023\u4efb\uff0c\u6700\u4e3b\u8981\u7684\u539f\u56e0\uff0c\u662f\u4eba\u6c11\u80af\u5b9a\u4e86\u6211\u5011\u675c\u7d55\u8caa\u8150\u3001\u5805\u6301\u6e05\u5ec9\u7684\u52aa\u529b\uff1b\u80af\u5b9a\u4e86\u6211\u5011\u958b\u653e\u9b06\u7d81\uff0c\u632f\u8208\u7d93\u6fdf\u7684\u52aa\u529b\uff1b\u80af\u5b9a\u4e86\u6211\u5011\u64f1\u7f6e\u722d\u8b70\uff0c\u8ffd\u6c42\u5169\u5cb8\u548c\u5e73\uff0c\u628a\u5371\u6a5f\u8b8a\u6210\u8f49\u6a5f\u7684\u52aa\u529b\uff1b\u80af\u5b9a\u4e86\u6211\u5011\u6b63\u6d3e\u6709\u6548\u7684\u6d3b\u8def\u5916\u4ea4\uff0c\u8d0f\u5f97\u570b\u969b\u793e\u6703\u7684\u80af\u5b9a\u8207\u652f\u6301\uff0c\u8b93\u53f0\u7063\u4eba\u6c11\u53ef\u4ee5\u514d\u7c3d\u8b49\u9068\u904a\u4e16\u754c\u3002\u000a    \u4f46\u662f\u5728\u9019\u7576\u4e2d\u9084\u6709\u66f4\u591a\u6bb7\u5207\u7684\u671f\u8a31\uff0c\u4eba\u6c11\u5e0c\u671b\u6211\u5011\u5728\u7167\u9867\u5f31\u52e2\u65cf\u7fa4\u4e4b\u5916\uff0c\u8981\u66f4\u91cd\u8996\u5206\u914d\u7684\u6b63\u7fa9\uff0c\u52aa\u529b\u7e2e\u77ed\u8ca7\u5bcc\u5dee\u8ddd\uff1b\u66f4\u91cd\u8996\u9752\u5e74\u5c31\u696d\u548c\u5be6\u73fe\u5922\u60f3\u7684\u6a5f\u6703\uff1b\u66f4\u91cd\u8996\u751f\u614b\u4fdd\u80b2\u548c\u8fb2\u6f01\u696d\u7684\u6c38\u7e8c\u7d93\u71df\uff1b\u66f4\u91cd\u8996\u4eba\u6c11\u5c0d\u653f\u5e9c\u65bd\u653f\u7684\u611f\u53d7\u3002\u6211\u5728\u6b64\u4fdd\u8b49\uff0c\u4e00\u5b9a\u6703\u52aa\u529b\u53bb\u505a\uff0c\u4e0d\u9054\u76ee\u6a19\uff0c\u7d55\u4e0d\u505c\u6b62\u3002\u000a      \u9019\u6b21\uff0c\u6211\u5011\u8d0f\u5f97\u4e86\u52dd\u5229\uff0c\u4f46\u5c31\u50cf\u56db\u5e74\u524d\u4e00\u6a23\uff0c\u5927\u5bb6\u9ad8\u8208\u4e00\u500b\u665a\u4e0a\u5c31\u597d\u4e86\u3002\u000a      \u5728\u7af6\u9078\u904e\u7a0b\u4e2d\uff0c\u82f1\u4e5d\u6709\u6a5f\u6703\u807d\u5230\u8521\u82f1\u6587\u4e3b\u5e2d\u548c\u5b8b\u695a\u745c\u4e3b\u5e2d\u7684\u5bf6\u8cb4\u610f\u898b\uff0c\u4ed6\u5011\u770b\u4e8b\u60c5\u7684\u89d2\u5ea6\uff0c\u6216\u8a31\u548c\u6211\u4e0d\u4e00\u6a23\uff0c\u7136\u800c\u95dc\u5fc3\u53f0\u7063\u7684\u7528\u5fc3\uff0c\u537b\u662f\u4e00\u81f4\u7684\uff0c\u6211\u8981\u6df1\u6df1\u611f\u8b1d\u4ed6\u5011\u3002\u9078\u8209\u904e\u7a0b\u4e2d\uff0c\u4ed6\u5011\u63d0\u51fa\u4e86\u8a31\u591a\u610f\u898b\uff0c\u7d66\u4e86\u6211\u4e0d\u5c11\u6aa2\u8a0e\u53cd\u7701\u7684\u7a7a\u9593\uff0c\u6211\u6703\u8a8d\u771f\u770b\u5f85\u3001\u4ed4\u7d30\u8a55\u4f30\uff0c\u53ea\u8981\u662f\u5c0d\u53f0\u7063\u4eba\u6c11\u6709\u5229\u7684\u610f\u898b\uff0c\u6211\u4e00\u5b9a\u63a1\u7d0d\u3002\u672a\u4f86\uff0c\u81f3\u5c11\u6bcf\u534a\u5e74\uff0c\u82f1\u4e5d\u4e5f\u5c07\u9080\u8acb\u671d\u91ce\u653f\u9ee8\u9818\u8896\u6703\u9762\uff0c\u91dd\u5c0d\u91cd\u8981\u8b70\u984c\u51dd\u805a\u5171\u8b58\uff0c\u5171\u540c\u70ba\u53f0\u7063\u7684\u9ec3\u91d1\u5341\u5e74\u651c\u624b\u6253\u62da\u3002\u000a    \u9019\u6b21\u7684\u9078\u8209\u4e2d\uff0c\u6211\u8d70\u904d\u53f0\u7063\u5404\u5730\uff0c\u4e0d\u65b7\u7684\u50be\u807d\u8207\u53cd\u7701\uff0c\u5728\u56db\u5e74\u57f7\u653f\u4e4b\u4e2d\uff0c\u6709\u54ea\u4e9b\u6210\u679c\u88ab\u4eba\u6c11\u80af\u5b9a\uff0c\u6709\u54ea\u4e9b\u758f\u5931\u88ab\u4eba\u6c11\u8a6c\u75c5\uff0c\u6709\u54ea\u4e9b\u88ab\u8aa4\u89e3\uff0c\u6709\u54ea\u4e9b\u8981\u52a0\u5f37\uff0c\u6211\u90fd\u4e00\u4e00\u8a18\u5728\u5fc3\u88e1\uff0c\u6703\u8b19\u865b\u7684\u6539\u9032\u4fee\u6b63\u3002\u000a    \u5728\u6211\u8d0f\u5f97\u9023\u4efb\u7684\u6b64\u523b\uff0c\u6211\u5411\u5927\u5bb6\u627f\u8afe\uff1a\u672a\u4f86\u56db\u5e74\uff0c\u53f0\u7063\u7684\u5f31\u52e2\u6c11\u773e\uff0c\u6703\u5f97\u5230\u66f4\u591a\u7684\u7167\u9867\uff1b\u672a\u4f86\u56db\u5e74\u53f0\u7063\u7d93\u6fdf\u6703\u6709\u7d50\u69cb\u6027\u7684\u6539\u9769\uff0c\u6703\u6709\u66f4\u5ee3\u5927\u7684\u767c\u5c55\u7a7a\u9593\uff1b\u672a\u4f86\u56db\u5e74\u5169\u5cb8\u95dc\u4fc2\u6703\u66f4\u548c\u8ae7\u3001\u66f4\u4e92\u4fe1\uff0c\u8aa4\u89e3\u885d\u7a81\u7684\u6a5f\u7387\u6703\u964d\u5230\u6700\u4f4e\u3002\u672a\u4f86\u56db\u5e74\u53f0\u7063\u4eba\u6c11\u6703\u6709\u66f4\u591a\u7684\u6a5f\u6703\u53c3\u8207\u570b\u969b\u4e8b\u52d9\uff0c\u53ef\u4ee5\u66f4\u65b9\u4fbf\u3001\u66f4\u6709\u5c0a\u56b4\u5730\uff0c\u4e16\u754c\u8d70\u900f\u900f\uff0c\u958b\u62d3\u8996\u91ce\u3001\u4ea4\u6d41\u6587\u5316\u3001\u62d3\u5c55\u5546\u6a5f\u3002\u672a\u4f86\u56db\u5e74\uff0c\u6211\u6703\u5927\u5200\u95ca\u65a7\u7684\u63a8\u52d5\u6539\u9769\uff0c\u8b93\u81fa\u7063\u812b\u80ce\u63db\u9aa8\uff0c\u70ba\u53f0\u7063\u9577\u6cbb\u4e45\u5b89\u3001\u516c\u5e73\u6b63\u7fa9\u8207\u6c38\u7e8c\u767c\u5c55\uff0c\u6253\u4e0b\u5805\u5be6\u7684\u57fa\u790e\u3002\u6211\u6703\u4ee5\u751f\u547d\u634d\u885b\u4e2d\u83ef\u6c11\u570b\u4e3b\u6b0a\u3001\u81fa\u7063\u5b89\u5168\u3001\u8207\u53f0\u7063\u4eba\u6c11\u7684\u5c0a\u56b4\u3002\u9019\u662f\u6211\u5c0d\u53f0\u7063\u4eba\u6c11\u6700\u838a\u56b4\u7684\u627f\u8afe\u3002\u000a    \u5728\u9019\u88e1\uff0c\u82f1\u4e5d\u8981\u7279\u5225\u8b1d\u8b1d\u856d\u526f\u7e3d\u7d71\u4e00\u8def\u6276\u6301\u76f8\u633a\uff0c\u5e38\u5e38\u5728\u95dc\u9375\u6642\u523b\uff0c\u63d0\u51fa\u95dc\u9375\u5c0d\u7b56\uff0c\u8b93\u6211\u5011\u6e21\u904e\u96e3\u95dc\u3002\u000a    \u6211\u4e5f\u8981\u8b1d\u8b1d\u5433\u6566\u7fa9\u9662\u9577\u63a5\u53d7\u6211\u7684\u8a17\u4ed8\uff0c\u64d4\u7576\u8d77\u884c\u653f\u9662\u9577\u7684\u91cd\u4efb\uff0c\u4e26\u6210\u529f\u7684\u8655\u7406\u4e86\u707d\u5f8c\u91cd\u5efa\u3001\u75ab\u60c5\u63a7\u5236\u8207\u7d93\u6fdf\u5fa9\u7526\uff0c\u4e26\u5c07\u8207\u6211\u5728\u672a\u4f86\u56db\u5e74\u4e26\u80a9\u4f5c\u6230\u3002\u000a\u6211\u4e5f\u8981\u8b1d\u8b1d\u9023\u69ae\u8b7d\u4e3b\u5e2d\u3001\u5433\u69ae\u8b7d\u4e3b\u5e2d\u3001\u738b\u91d1\u5e73\u9662\u9577\u548c\u6240\u6709\u5e6b\u52a9\u6211\u3001\u652f\u6301\u6211\u3001\u9f13\u52f5\u6211\u3001\u5305\u5bb9\u6211\u7684\u9ee8\u5167\u9577\u8f29\u3001\u5148\u9032\u8207\u5925\u4f34\u3002\u000a    \u6211\u9084\u8981\u8b1d\u8b1d\u6211\u7684\u5bb6\u4eba\uff0c\u8b1d\u8b1d\u7f8e\u9752\uff0c\u5979\u4e00\u76f4\u662f\u6211\u5f9e\u653f\u6700\u5927\u7684\u652f\u6301\u529b\u91cf\uff0c\u4e5f\u662f\u6211\u5011\u5bb6\u300c\u6c38\u9060\u7684\u53cd\u5c0d\u9ee8\u300d\uff0c\u7e3d\u662f\u56b4\u683c\u76e3\u7763\u6211\uff0c\u63d0\u51fa\u6700\u7280\u5229\u7684\u6279\u8a55\u8207\u5efa\u8b70\u3002\u000a\u6211\u4e5f\u8981\u611f\u8b1d\u904e\u53bb\u548c\u6211\u4e00\u8d77\u6253\u62da\u7684\u57f7\u653f\u5718\u968a\u540c\u4ec1\uff0c\u4ee5\u53ca\u8f9b\u52de\u5954\u8d70\u7684\u9078\u6230\u5925\u4f34\u5011\uff0c\u9084\u6709\u5343\u5343\u842c\u842c\u71b1\u60c5\u76f8\u633a\u3001\u7121\u79c1\u5949\u737b\u7684\u5fd7\u5de5\u670b\u53cb\u5011\u3002\u000a    \u6700\u5f8c\uff0c\u6211\u518d\u4e00\u6b21\u611f\u8b1d\u6295\u7968\u7d66\u6211\u7684\u670b\u53cb\u5011\uff0c\u611f\u8b1d\u4f60\u5011\u5805\u5b9a\u7684\u4fe1\u4efb\u6211\uff0c\u7d66\u6211\u6eab\u6696\u7684\u652f\u6301\u3002\u8b93\u6211\u6709\u6a5f\u6703\u70ba\u5168\u53f0\u7063\u4eba\u6c11\uff0c\u518d\u670d\u52d9\u56db\u5e74\u3002\u000a    \u4e0b\u500b\u79ae\u62dc\u5c31\u662f\u8fb2\u66c6\u65b0\u5e74\u4e86\uff01\u6211\u5728\u6b64\u9810\u795d\u5927\u5bb6\uff0c\u9f8d\u5e74\u884c\u5927\u904b\uff0c\u53f0\u7063\u5e73\u5b89\u5e78\u798f\uff0c\u4e2d\u83ef\u6c11\u570b\u570b\u904b\u660c\u9686\uff01
p130
sVid
p131
V118250504903757_274768455918627
p132
sVcomments
p133
(dp134
Vcount
p135
I25867
ssa(dp136
Vlikes
p137
(dp138
Vcount
p139
I181679
ssVfrom
p140
(dp141
Vcategory
p142
VPolitician
p143
sVid
p144
V118250504903757
p145
sVname
p146
V\u99ac\u82f1\u4e5d\u7e3d\u7d71
p147
ssVcomments
p148
(dp149
Vcount
p150
I11942
ssVupdated_time
p151
V2011-08-20T00:31:56+0000
p152
sg12
(lp153
(dp154
Vfrom
p155
(dp156
Vname
p157
VVicky Yo
p158
sVid
p159
V100001461380930
p160
ssVmessage
p161
V\u4f60\u9700\u8981\u770b\u91ab\u751f\u5403\u85e5\u4e86\uff0c\u6c92\u9322\u662f\u55ce?
p162
sVid
p163
V118250504903757_197587280303412_79688120
p164
sa(dp165
Vfrom
p166
(dp167
Vname
p168
VYawen Jiang
p169
sVid
p170
V100001485866205
p171
ssVmessage
p172
V\u5982\u679c\u9019\u662f\u7e3d\u7d71\u5e9c\u7684\u81c9\u66f8    \u61c9\u8a72\u653e\u4e9b\u6709\u95dc\u570b\u5bb6\u7684\u4e8b    \u81ea\u5df1\u7684\u79c1\u751f\u6d3b  \u653e\u5728\u500b\u4eba\u81c9\u66f8\u6703\u6bd4\u8f03\u6070\u7576
p173
sVid
p174
V118250504903757_197587280303412_79688124
p175
sa(dp176
Vfrom
p177
(dp178
Vname
p179
V\u5f90\u5f70\u81e8
p180
sVid
p181
V100004270414494
p182
ssVmessage
p183
V\u7576\u7e3d\u7d71, \u4e0d\u662f\u53ea\u6709\u81ea\u5df1\u5e78\u798f\u5c31\u597d..........
p184
sVid
p185
V118250504903757_197587280303412_79688149
p186
sa(dp187
Vfrom
p188
(dp189
Vname
p190
V\u8d99\u7389\u7425
p191
sVid
p192
V100001712117427
p193
ssVmessage
p194
V\u597d\u597d\u966a\u5bb6\u4eba\u5427
p195
sVid
p196
V118250504903757_197587280303412_79688150
p197
sa(dp198
Vfrom
p199
(dp200
Vname
p201
VJun Shawn
p202
sVid
p203
V100000428471710
p204
ssVmessage
p205
V\u4eba\u751f\u82e6\u77ed\u597d\u597d\u73cd\u60dc\u5c0d\u65b9\u64c1\u6709\u7684\u6642\u5149\u4ea8\u53d7\u4eba\u751f\u5427\u99ac\u7e3d\u7d71!
p206
sVid
p207
V118250504903757_197587280303412_79688169
p208
sa(dp209
Vfrom
p210
(dp211
Vname
p212
V\u6731\u798f\u9032
p213
sVid
p214
V1525684341
p215
ssVmessage
p216
V\u6709\u80fd\u529b\u53bb\u7559\u5b78\u9084\u53eb\u7aae\uff0c\u540c\u90a3\u5e74\u9f61\u5c64\u591a\u5c11\u4eba\u5931\u5b78\uff0c\u674e\u7165\u4e5f\u662f\u9ee8\u5de5\u51fa\u8eab\u73fe\u5728\u767c\u73fe\u5bcc\u4e0d\u53ef\u6575\u570b\uff0c\u9019\u4eba\u4f5c\u9818\u5c0e\u628a\u53f0\u7063\u4eba\u9762\u5b50\u767c\u63a6\u5230\u53e4\u4eca\u4e2d\u5916\u6b77\u53f2\u7559\u540d\u4e86\uff01
p217
sVid
p218
V118250504903757_197587280303412_79688207
p219
sa(dp220
Vfrom
p221
(dp222
Vname
p223
VWarren Tam
p224
sVid
p225
V815469907
p226
ssVmessage
p227
VMany congratulations !! 34 years is not a short time ..... Well done
p228
sVid
p229
V118250504903757_197587280303412_79688212
p230
sa(dp231
Vfrom
p232
(dp233
Vname
p234
V\u6a02\u5496
p235
sVid
p236
V1619263408
p237
ssVmessage
p238
V\u53ef\u4ee5\u8ac7\u8ac7\u4f60\u5c0d\u81fa\u7063\u672a\u4f86\u7684\u5e74\u9752\u4eba\u6216\u662f\u525b\u5728\u81fa\u7063\u51fa\u751f\u7684\u5c0f\u5b69\uff0c\u4f60\u600e\u6a23\u66ff\u4ed6\u6253\u9020\u4e00\u500b\u5920\u597d\u7684\u751f\u6d3b\u74b0\u5883\u548c\u793e\u6703\u55ce\uff1f\u5149\u8b1b\u4f60\u5728\u7f8e\u570b\u5f88\u7aae\uff0c\u6211\u9023\u7f8e\u570b\u6a5f\u7968\u90fd\u8cb7\u4e0b\u53bb\u4e86\uff01\u8acb\u554f\u6211\u662f\u5426\u8a72\u8d70\u4e0a\u8857\u982d\u5436\u558a\u8aaa\u65e5\u5b50\u5feb\u904e\u4e0d\u4e0b\u53bb\u4e86\uff01
p239
sVid
p240
V118250504903757_197587280303412_79688242
p241
sa(dp242
Vfrom
p243
(dp244
Vname
p245
VCoco Hu
p246
sVid
p247
V1792421678
p248
ssVmessage
p249
V\u795d\u798f\u4f60\u5011\uff01\u597d\u5e78\u798f\uff01
p250
sVid
p251
V118250504903757_197587280303412_79688243
p252
sa(dp253
Vfrom
p254
(dp255
Vname
p256
VDavid Chen
p257
sVid
p258
V100001272158122
p259
ssVmessage
p260
V\u597d\u5e78\u798f\uff0c \u8ca0\u9762\u7684\u592a\u7121\u804a\u4e86\u5427. \u81ea\u5df1\u66f8\u6c92\u8b80\u597d\u5c31\u602a\u6c92\u5de5\u4f5c\u3002 \u7121\u804a
p261
sVid
p262
V118250504903757_197587280303412_79688247
p263
sasVmessage
p264
V\u4eca\u5929\u662f\u6211\u548c\u7f8e\u9752\u7d50\u5a5a\u4e09\u5341\u56db\u9031\u5e74\u3002\u525b\u7d50\u5a5a\u6642\uff0c\u6211\u6b63\u5728\u54c8\u4f5b\u7559\u5b78\uff0c\u751f\u6d3b\u76f8\u7576\u5109\u6a38\u3002\u65b0\u5c45\u5c31\u662f\u5b78\u751f\u5bbf\u820d\uff0c\u5bb6\u5177\u90fd\u662f\u63a5\u6536\u5225\u4eba\u4e0d\u8981\u7684\u820a\u8ca8\uff0c\u6216\u5230\u8df3\u86a4\u5e02\u5834\u8cb7\u7684\u820a\u684c\u6905\u3002\u5370\u8c61\u7279\u5225\u6df1\u523b\u7684\u662f\uff0c\u6211\u548c\u7f8e\u9752\u9084\u5230\u8857\u4e0a\u64bf\u4e86\u5169\u500b\u5ee2\u8f2a\u80ce\uff0c\u6d17\u6de8\u5f8c\u758a\u8d77\u4f86\uff0c\u4e2d\u7a7a\u7684\u5730\u65b9\u585e\u9032\u5169\u500b\u6795\u982d\uff0c\u518d\u92ea\u4e0a\u4e00\u5c64\u5e03\uff0c\u5c31\u662f\u6211\u5011\u5bb6\u5f85\u5ba2\u7528\u7684\u300c\u6c99\u767c\u300d\u4e86\u3002\u800c\u7f8e\u9752\u7684\u59ca\u59ca\u5728\u6211\u5011\u65b0\u5a5a\u6642\uff0c\u9001\u4e86\u5169\u5e8a\u8584\u88ab\u7d66\u6211\u5011\uff0c\u6211\u4e00\u7528\u5c31\u662f34\u5e74\uff0c\u5230\u73fe\u5728\u9084\u5728\u7528\uff0c\u51ac\u6696\u590f\u6dbc\uff0c\u53ea\u662f\u89ba\u5f97\u6709\u9ede\u5c0d\u4e0d\u8d77\u5be2\u5177\u696d\u8005\u5c31\u662f\u4e86\u3002\u000a\u4e0d\u4e45\u524d\u60c5\u4eba\u7bc0\u6642\uff0c\u4e00\u4f4d\u7db2\u53cb\u770b\u5230\u7f8e\u9752\u8ddf\u6211\u7684\u7167\u7247\uff0c\u7559\u8a00\u8aaa\u300c\u597d\u6069\u611b\u5594\uff01\u53ef\u60dc\u7f8e\u9752\u59ca\u8aaa\u904e\u4e0b\u8f29\u5b50\u4e0d\u5ac1\u7d66\u99ac\u82f1\u4e5d\u4e86\u300d\u3002\u6211\u770b\u5b8c\u7b11\u4e86\u597d\u4e45\uff0c\u6c7a\u5b9a\uff1a\u4e00\u3001\u4e0b\u8f29\u5b50\u4e0d\u5a36\u5225\u7684\u5973\u4eba\uff0c\u770b\u5979\u5ac1\u4e0d\u5ac1\u6211\uff1b\u6216\u4e0b\u8f29\u5b50\u6211\u5011\u4e92\u63db\u6027\u5225\uff0c\u6211\u5ac1\u7d66\u5979\uff01\u000a\u6642\u9593\u4e00\u6643\u5c31\u662f\u4e09\u5341\u56db\u5e74\u4e86\uff0c\u4eba\u6709\u6c92\u6709\u4e0b\u4e00\u8f29\u5b50\u6211\u4e0d\u77e5\u9053\uff0c\u4f46\u6211\u77e5\u9053\u6211\u5f88\u5e78\u904b\uff0c\u9019\u8f29\u5b50\u6709\u7f8e\u9752\u7576\u6211\u7684\u7d42\u751f\u4f34\u4fb6\u3002\u000a\uff08\u7167\u7247\u651d\u65bc1975\u5e748\u6708\uff0c\u5728\u7d10\u7d04\u5e02\u66fc\u54c8\u5766\u5340\u83ef\u76db\u9813\u5ee3\u5834\u516c\u5712Washington Square Park\uff0c\u7576\u6642\u6b63\u5728\u8ddf\u7f8e\u9752\u6200\u611b\uff0c\u5169\u5e74\u5f8c\u7d50\u5a5a\uff09
p265
sVid
p266
V118250504903757_197587280303412
p267
sa(dp268
Vfrom
p269
(dp270
Vcategory
p271
VPolitician
p272
sVid
p273
V118250504903757
p274
sVname
p275
V\u99ac\u82f1\u4e5d\u7e3d\u7d71
p276
ssg12
(lp277
(dp278
Vfrom
p279
(dp280
Vname
p281
VAlbert Peng
p282
sVid
p283
V100000128093119
p284
ssVmessage
p285
V+1
p286
sVid
p287
V118250504903757_274496059279200_3222507
p288
sa(dp289
Vfrom
p290
(dp291
Vname
p292
V\u5de8\u64ce
p293
sVid
p294
V100001307945933
p295
ssVmessage
p296
V\u7576\u9078........\u723d\u723d\u723d.\u771f\u723d
p297
sVid
p298
V118250504903757_274496059279200_3240736
p299
sa(dp300
Vfrom
p301
(dp302
Vname
p303
V\u9112\u627f\u5ee3
p304
sVid
p305
V100000103678526
p306
ssVmessage
p307
V\u7b2c\u4e00?
p308
sVid
p309
V118250504903757_274496059279200_3220231
p310
sa(dp311
Vfrom
p312
(dp313
Vname
p314
VA-Ren Lao-Yang
p315
sVid
p316
V1225007523
p317
ssVmessage
p318
V\u53f3
p319
sVid
p320
V118250504903757_274496059279200_3220232
p321
sa(dp322
Vfrom
p323
(dp324
Vname
p325
V\u9673\u6631\u5b89
p326
sVid
p327
V100002676863822
p328
ssVmessage
p329
V\u99ac\u7e3d\u7d71\u52a0\u6cb9!!
p330
sVid
p331
V118250504903757_274496059279200_3220236
p332
sa(dp333
Vfrom
p334
(dp335
Vname
p336
V\u8a31\u8000\u5347
p337
sVid
p338
V755836012
p339
ssVmessage
p340
V\u53f3~\u54c8~
p341
sVid
p342
V118250504903757_274496059279200_3220235
p343
sa(dp344
Vfrom
p345
(dp346
Vname
p347
V\u9673\u91cd\u71b9
p348
sVid
p349
V100000037491101
p350
ssVmessage
p351
VYA!!YA!!YA!!
p352
sVid
p353
V118250504903757_274496059279200_3220239
p354
sa(dp355
Vfrom
p356
(dp357
Vname
p358
VYu Chieh Lin
p359
sVid
p360
V100000070411314
p361
ssVmessage
p362
V\u53f3
p363
sVid
p364
V118250504903757_274496059279200_3220238
p365
sa(dp366
Vfrom
p367
(dp368
Vname
p369
V\u6bb5\u66c9\u5948
p370
sVid
p371
V100000318824873
p372
ssVmessage
p373
V\u982d\u3116\u6295\u3116
p374
sVid
p375
V118250504903757_274496059279200_3220240
p376
sa(dp377
Vfrom
p378
(dp379
Vname
p380
V\u5f90\u7d9c\u752b
p381
sVid
p382
V100001821311619
p383
ssVmessage
p384
V\u51cd\u849c!
p385
sVid
p386
V118250504903757_274496059279200_3220245
p387
sasVupdated_time
p388
V2012-01-14T06:52:00+0000
p389
sVlikes
p390
(dp391
Vcount
p392
I115415
ssVmessage
p393
V\u300a\u5c0f\u7de8\u3002\u6295\u7968\u5831\u5230\u53f0\u300b\u6295\u7968\u53ea\u5269\u6700\u5f8c\u4e00\u5c0f\u6642\uff0c\u9084\u6c92\u6295\u7968\u7684\uff0c\u8d95\u5feb\u53bb\u6295\u7968\u54e6\uff0c\u5df2\u7d93\u6295\u7968\u7684\uff0c\u4f86\u9019\u88e1\u5831\u5230\u7b54\u53f3\u5427\uff01
p394
sVid
p395
V118250504903757_274496059279200
p396
sVcomments
p397
(dp398
Vcount
p399
I21457
ssa(dp400
Vfrom
p401
(dp402
Vcategory
p403
VPolitician
p404
sVid
p405
V118250504903757
p406
sVname
p407
V\u99ac\u82f1\u4e5d\u7e3d\u7d71
p408
ssg12
(lp409
(dp410
Vfrom
p411
(dp412
Vname
p413
V\u912d\u5b87\u54f2
p414
sVid
p415
V100000273041609
p416
ssVmessage
p417
V\u5e79\u4f60\u5e36\u8cfd
p418
sVid
p419
V118250504903757_504532622942208_73827140
p420
sa(dp421
Vfrom
p422
(dp423
Vname
p424
V\u6797\u5efa\u5b8f
p425
sVid
p426
V100000388418874
p427
ssVmessage
p428
V=\u53e3=
p429
sVid
p430
V118250504903757_504532622942208_73827139
p431
sa(dp432
Vfrom
p433
(dp434
Vname
p435
V\u8cc8\u7acb\u5091
p436
sVid
p437
V1697308769
p438
ssVmessage
p439
V\u5e79\u4f60\u5e36\u8cfd\u5566
p440
sVid
p441
V118250504903757_504532622942208_73827138
p442
sa(dp443
Vfrom
p444
(dp445
Vname
p446
V\u8a31\u6e05\u9594
p447
sVid
p448
V1639479185
p449
ssVmessage
p450
V\u99ac\u8cfd\u50b3\u8aaa
p451
sVid
p452
V118250504903757_504532622942208_73827141
p453
sa(dp454
Vfrom
p455
(dp456
Vname
p457
V\u8449\u96e8\u6674
p458
sVid
p459
V100000291388315
p460
ssVmessage
p461
V\u310f\u310f
p462
sVid
p463
V118250504903757_504532622942208_73827142
p464
sa(dp465
Vfrom
p466
(dp467
Vname
p468
V\u9673\u51a0\u5b87
p469
sVid
p470
V1232673268
p471
ssVmessage
p472
V\u6230\u72af?
p473
sVid
p474
V118250504903757_504532622942208_73827144
p475
sa(dp476
Vfrom
p477
(dp478
Vname
p479
VC.s. Mao
p480
sVid
p481
V100000565815698
p482
ssVmessage
p483
V\u4f60\u70ba\u4f55\u4e0d\u8207\u97d3\u570b\u968a\u63e1\u624b\u5566\uff01\uff01\uff01\uff01\uff01
p484
sVid
p485
V118250504903757_504532622942208_73827145
p486
sa(dp487
Vfrom
p488
(dp489
Vname
p490
VJason Lai
p491
sVid
p492
V100000616259142
p493
ssVmessage
p494
V\u99ac\u585e\u53c8\u4f86\u4e86......
p495
sVid
p496
V118250504903757_504532622942208_73827147
p497
sa(dp498
Vfrom
p499
(dp500
Vname
p501
V\u90ed\u54f2\u744b
p502
sVid
p503
V100002402268167
p504
ssVmessage
p505
V\u9589\u5634\u597d\u55ce
p506
sVid
p507
V118250504903757_504532622942208_73827146
p508
sa(dp509
Vfrom
p510
(dp511
Vname
p512
V\u5f35\u4f51\u4efb
p513
sVid
p514
V100000246830013
p515
ssVmessage
p516
V\u4e2d\u83ef\u968a\u52a0\u6cb9
p517
sVid
p518
V118250504903757_504532622942208_73827151
p519
sasVupdated_time
p520
V2013-03-05T15:20:01+0000
p521
sVlikes
p522
(dp523
Vcount
p524
I98863
ssVmessage
p525
V\u4eca\u665a\u4e2d\u83ef\u968a\u96d6\u7136\u906d\u9047\u5230\u4e9b\u8a31\u963b\u7919\uff0c\u4f46\u4e2d\u83ef\u5065\u5152\u6191\u8457\u5be6\u529b\u4e0d\u9a55\u4e0d\u9912\uff0c\u4ee5\u9810\u8cfd2\u52dd\u7684\u6210\u7e3e\u524d\u9032\u6771\u4eac\u516b\u5f37\u8cfd\uff01\u89aa\u611b\u7684\u7db2\u53cb\uff0c\u8b93\u6211\u5011\u5ef6\u7e8c\u9019\u4e00\u4efd\u611f\u52d5\uff0c\u7e7c\u7e8c\u70ba\u4e2d\u83ef\u5065\u5152\u52a0\u6cb9!\u000a \u000a\u4f60\u597d\uff0c\u6771\u4eac!\u4e2d\u83ef\u968a\u4f86\u4e86\uff01
p526
sVid
p527
V118250504903757_504532622942208
p528
sVcomments
p529
(dp530
Vcount
p531
I15604
ssa(dp532
Vfrom
p533
(dp534
Vcategory
p535
VPolitician
p536
sVid
p537
V118250504903757
p538
sVname
p539
V\u99ac\u82f1\u4e5d\u7e3d\u7d71
p540
ssg12
(lp541
(dp542
Vfrom
p543
(dp544
Vname
p545
VRay Liang
p546
sVid
p547
V100000004021526
p548
ssVmessage
p549
V\u3002
p550
sVid
p551
V118250504903757_273753339353472_3196801
p552
sa(dp553
Vfrom
p554
(dp555
Vname
p556
VJocelyn Su
p557
sVid
p558
V100002452147402
p559
ssVmessage
p560
V2.2.2.2.2.\u51cd\u849c
p561
sVid
p562
V118250504903757_273753339353472_3196807
p563
sa(dp564
Vfrom
p565
(dp566
Vname
p567
VJenny Wu
p568
sVid
p569
V1396327045
p570
ssVmessage
p571
V\u7e3d\u7d71\u6211\u611b\u4f60 \u6211\u4e00\u5b9a\u6295\u4f60\uff01
p572
sVid
p573
V118250504903757_273753339353472_3196809
p574
sa(dp575
Vfrom
p576
(dp577
Vname
p578
VRay Liang
p579
sVid
p580
V100000004021526
p581
ssVmessage
p582
VO
p583
sVid
p584
V118250504903757_273753339353472_3196811
p585
sa(dp586
Vfrom
p587
(dp588
Vname
p589
VJames Liu
p590
sVid
p591
V100000308851209
p592
ssVmessage
p593
VYA
p594
sVid
p595
V118250504903757_273753339353472_3196810
p596
sa(dp597
Vfrom
p598
(dp599
Vname
p600
V\u7f85\u54f2
p601
sVid
p602
V100000190482658
p603
ssVmessage
p604
V\u99ac\u82f1\u4e5d\u7e3d\u7d71\u51cd\u849c
p605
sVid
p606
V118250504903757_273753339353472_3196812
p607
sa(dp608
Vfrom
p609
(dp610
Vname
p611
VRay Liang
p612
sVid
p613
V100000004021526
p614
ssVmessage
p615
Vo
p616
sVid
p617
V118250504903757_273753339353472_3196816
p618
sa(dp619
Vfrom
p620
(dp621
Vname
p622
V\u5730\u9707\u7c21\u8a0a
p623
sVid
p624
V100002554542148
p625
ssVmessage
p626
V\u652f\u63012\u865f\u99ac\u82f1\u4e5d,\u99ac\u7e3d\u7d71\u7576\u9078\u000a\u000a\u5168\u53f0\u7063\u552f\u4e00\u4e00\u500b921\u5927\u5730\u9707\u4e4b\u524d\u5c31\u5df1\u7d93\u8cb7\u4e86\u300e\u4f4f\u5b85\u5730\u9707\u96aa\u300f\u7684\u4eba\u3001\u6709\u76f8\u7247\u70ba\u8b49,\u5728\u76f8\u7c3f\u540d\u7a31(2011\u5e7411\u670821\u65e5)\u3002\u7531\u65bc\u8eab\u9ad4\u80fd\u611f\u61c9\u5230\u5730\u9707,\u7528\u624b\u6a5f\u7c21\u8a0a\u7684\u65b9\u5f0f\u50b3\u7d66\u5176\u4ed6\u4eba,\u5df2\u6709\u6578\u5e74\u4e4b\u4e45.\u6bcf\u6b21\u50b3\u7c21\u8a0a\u5f8c,\u7d04\u5728\u4e09\u5929\u6642\u9593\u5167\u5c31\u6709\u5730\u9707\u767c\u751f,\u5df1\u6210\u529f\u591a\u6578\u6b21,\u5728\u65e5\u672c311\u5927\u5730\u9707\u5f8c,\u66f4\u958b\u653e\u7d66\u4e0d\u8a8d\u8b58\u7684\u4eba\u8a66\u7528.\u000a\u000a\u662f\u5426\u5e36\u5098,\u4f60\u53ef\u4ee5\u770b\u964d\u96e8\u6a5f\u7387\u000a\u660e\u5929\u7684\u884c\u7a0b\uff0c\u4f60\u53ef\u4ee5\u53c3\u8003\u6c23\u8c61\u5831\u544a\u3002\u000a\u552f\u7368\u53ea\u6709\u5730\u9707\uff0c\u4f60\u7121\u6cd5\u53d6\u5f97\u8cc7\u8a0a\u4f86\u53c3\u8003\u55ce\uff1f\u000a\u81f3\u5c11(1\u5c0f\u6642)\u4ee5\u524d\u7684\u3010\u5730\u9707\u7c21\u8a0a\u3011\uff0c\u4f86\u81ea\u751f\u7269\u611f\u61c9\u7684\u8a0a\u606f\u3002\u000a\u6578\u5e74\u7684\u6210\u529f\u8a18\u9304\uff0c\u4e0d\u6015\u4f60\u8a66\u7528\uff0c\u5c31\u6015\u4f60\u4e0d\u4f7f\u7528\uff0c\u771f\u91d1\u4e0d\u6015\u706b\u7149\u3002\u000a\u8d95\u5feb\u4f86\u3008\u514d\u8cbb\u8a66\u7528\u3009\uff01\u300a\u547d\u904b\u300b\u53ef\u80fd\u5c31\u5728\ufe5d\u4e00\u5ff5\u4e4b\u9593\ufe5e\u3002\u000a\u5225\u4eba\u6c92\u6709\u7684\u8a0a\u606f\uff0c\u6211\u5011\u6709\uff0c\u6211\u5011\u7ad9\u7684\u4f4d\u7f6e\u5c31\u4e0d\u540c\u3002\u000a\u7d66\u81ea\u5df1\u4e00\u500b\u6a5f\u6703\uff0c\u4e5f\u7d66\u95dc\u5fc3\u7684\u4eba\u4e00\u500b\u6a5f\u6703\u3002\u000a\u000a\u5730\u9707\u7c21\u8a0a\u5167\u5bb9\u6709\u4e8c\u500b\u4e3b\u8981\u91cd\u9ede,\u000a1.\u5927\u81f4\u53ef\u4ee5\u77e5\u9053\u5730\u9707\u898f\u6a21\u6709\u591a\u5927.\u000a2.\u7d04\u5728\u4e09\u5929\u6642\u9593\u5167\u767c\u751f.\u000a\u000a\u203b\u6700\u8fd1\u534a\u5e74\u5728\u53f0\u7063\u5730\u5340\u6700\u5927\u7684\u5730\u9707(\u898f\u6a216.3\u7d1a)\u5df2\u7d93\u88ab\u6211\u6293\u5230,\u800c\u4e14\u662f\u5728\u524d\u4e00\u5929\u5c31\u5df2\u7d93\u767c\u51fa\u4e86\u5730\u9707\u7c21\u8a0a,\u76f8\u7247\u540d\u7a31(10\u670830\u65e56.3\u7d1a\u5730\u9707)\u53ef\u8b49\u660e.\u4f9d\u904e\u53bb\u7d93\u9a57\u4e00\u5e74\u7d04\u6709\u4e09\u6b21(\u5f37\u70c8\u611f\u61c9,\u5efa\u8b70\u4f5c\u9632\u707d\u6e96\u5099),10\u670829\u65e5\u5c31\u7528\u4e86\u4e00\u6b21.\u000a\u000a\u672c\u4eba(\u9ad8\u65ed\u6771)\u4e0d\u4f7f\u7528msn,\u53ea\u5728\u81c9\u66f8facebook\u4e0a\u8207\u5927\u5bb6\u806f\u7e6b,\u6709\u554f\u984c\u53ef\u6253\u96fb\u8a71\u806f\u7d61\u6211,\u6bd4\u8f03\u65b9\u4fbf\u4e5f\u6bd4\u8f03\u5feb.\u82e5\u60f3\u8981\u8cfc\u8cb7,\u5728\u9060\u5730\u8005,\u53ef\u7528\u532f\u6b3e\u65b9\u5f0f,\u672c\u4eba\u6703\u5c07\u5e73\u5e38\u7528\u7684\u5f70\u9280\u5e33\u6236\u544a\u77e5,\u4ee5\u65b9\u4fbf\u5831\u7a05.\u8b1d\u8b1d.\u000a\u000a\u4ee5\u7c3d\u7d04\u65b9\u5f0f\u4fdd\u969c\u5f7c\u6b64\u6b0a\u76ca,\u4e00\u652f\u624b\u6a5f\u865f\u78bc\u4e00\u5e74\u8cbb\u7528\u8cb3\u4edf\u5143\u65b0\u53f0\u5e63,\u70ba\u9f13\u52f5\u5718\u8cfc(6\u652f\u624b\u6a5f\u865f\u78bc\u4e00\u8d77\u8cb7\u6253\u4e5d\u6298),\u5e73\u5747\u6bcf\u5929\u4e0d\u52306\u5143,\u6709\u5831\u5c0e\u6307\u51fa\u672a\u4f8650\u5e74\u53f0\u7063\u767c\u751f\u5927\u5730\u9707\u7684\u6a5f\u7387\u9ad8\u90544\u6210,\u4eca\u5e74\u53c8\u662f2012\u5e74,\u6703\u4e0d\u6703\u53c8\u6709\u4ee4\u4eba\u5bb3\u6015\u7684\u5927\u5730\u9707\u767c\u751f\u9084\u5f88\u96e3\u8b1b,\u4e0d\u904e,\u70ba\u81ea\u5df1\u8cb7\u500b\u8a0a\u606f,\u8cb7\u500b\u6a5f\u6703,\u8aaa\u4e0d\u5b9a\u53ef\u4ee5\u8da8\u5409\u907f\u51f6,\u907f\u514d\u707d\u798d,\u66f4\u6709\u53ef\u80fd\u5e6b\u52a9\u5230\u81ea\u5df1\u7684\u5bb6\u4eba,\u4eba\u8aaa"\u5343\u91d1\u96e3\u8cb7\u65e9\u77e5\u9053"\u53c8\u8aaa"\u9810\u9632\u52dd\u65bc\u6cbb\u7642",\u8aaa\u7684\u5c31\u662f\u4e8b\u5148\u6e96\u5099\u7684\u91cd\u8981\u6027,\u8acb\u554f,\u4f60\u6e96\u5099\u597d\u4e86\u55ce?\u8d95\u5feb\u4f86\u96fb.\u000a\u000a\u806f\u7d61\u96fb\u8a71:\u000a0970709980_ \u000a0976556322_
p627
sVid
p628
V118250504903757_273753339353472_3196815
p629
sa(dp630
Vfrom
p631
(dp632
Vname
p633
V\u738b\u5ef7\u745c
p634
sVid
p635
V100000172204989
p636
ssVmessage
p637
V\u99ac\u7e3d\u7d71\u52a0\u6cb9\u000a\u4e2d\u83ef\u6c11\u570b\u52a0\u6cb9
p638
sVid
p639
V118250504903757_273753339353472_3196817
p640
sa(dp641
Vfrom
p642
(dp643
Vname
p644
VCindy Lin
p645
sVid
p646
V100000945944867
p647
ssVmessage
p648
V\u52a0\u6cb9 :)
p649
sVid
p650
V118250504903757_273753339353472_3196820
p651
sasVupdated_time
p652
V2012-01-13T07:08:03+0000
p653
sVlikes
p654
(dp655
Vcount
p656
I97536
ssVmessage
p657
V\u5404\u4f4d\u7db2\u53cb\u5927\u5bb6\u597d\uff0c\u9078\u524d\u5012\u6578\uff0c\u53f0\u7063\u672a\u4f86\u7684\u56db\u5e74\uff0c\u5c31\u5728\u5927\u5bb6\u660e\u5929\u624b\u4e0a\u7684\u9078\u7968\uff01\u6295\u5e73\u5b89\u3001\u6295\u6e05\u5ec9\u3001\u6295\u548c\u5e73\u3001\u6295\u516c\u7fa9\uff0c\u6295\u7d66\u81ea\u5df1\u8207\u4e0b\u4e00\u4ee3\u7684\u672a\u4f86\uff0c\u4e00\u7968\u90fd\u4e0d\u80fd\u5c11\uff01\u6211\u5011\u4e00\u8d77\u52a0\u6cb9\uff01\u8b93\u597d\u7684\u6539\u8b8a\u7e7c\u7e8c\uff0c\u8b93\u53f0\u7063\u5927\u6b65\u5411\u524d\uff01
p658
sVid
p659
V118250504903757_273753339353472
p660
sVcomments
p661
(dp662
Vcount
p663
I6854
ssa(dp664
Vfrom
p665
(dp666
Vcategory
p667
VPolitician
p668
sVid
p669
V118250504903757
p670
sVname
p671
V\u99ac\u82f1\u4e5d\u7e3d\u7d71
p672
ssg12
(lp673
(dp674
Vfrom
p675
(dp676
Vname
p677
VBling Bling Chen
p678
sVid
p679
V100000121076114
p680
ssVmessage
p681
V\u7e3d\u7d71\u60c5\u4eba\u7bc0\u5feb\u6a02\uff01
p682
sVid
p683
V118250504903757_295965680465571_3456289
p684
sa(dp685
Vfrom
p686
(dp687
Vname
p688
V\u8a31\u6167\u76c8
p689
sVid
p690
V100000158467989
p691
ssVmessage
p692
V\u54fc
p693
sVid
p694
V118250504903757_295965680465571_3456290
p695
sa(dp696
Vfrom
p697
(dp698
Vname
p699
V\u5f90\u5b50\u7950
p700
sVid
p701
V1396535165
p702
ssVmessage
p703
V\u592a\u611f\u4eba\u4e86!
p704
sVid
p705
V118250504903757_295965680465571_3456292
p706
sa(dp707
Vfrom
p708
(dp709
Vname
p710
V\u5f6d\u5b5f\u541b
p711
sVid
p712
V1637813821
p713
ssVmessage
p714
V\u958b\u5fc3\u5c31\u597d!
p715
sVid
p716
V118250504903757_295965680465571_3456296
p717
sa(dp718
Vfrom
p719
(dp720
Vname
p721
VMark Chien
p722
sVid
p723
V1115316689
p724
ssVmessage
p725
V\u8b1d\u8b1d\u7b2c\u4e00\u592b\u4eba =)
p726
sVid
p727
V118250504903757_295965680465571_3456297
p728
sa(dp729
Vfrom
p730
(dp731
Vname
p732
V\u8449\u6021\u79c0
p733
sVid
p734
V1384604200
p735
ssVmessage
p736
V\u99ac\u7e3d\u7d71~~~ \u60c5\u4eba\u7bc0\u5feb\u6a02~~
p737
sVid
p738
V118250504903757_295965680465571_3456298
p739
sa(dp740
Vfrom
p741
(dp742
Vname
p743
VTimothy Ma
p744
sVid
p745
V1425075155
p746
ssVmessage
p747
V\u7f8e\u9752\u597d\u68d2
p748
sVid
p749
V118250504903757_295965680465571_3456300
p750
sa(dp751
Vfrom
p752
(dp753
Vname
p754
V\u6d2a\u4e38\u5b50
p755
sVid
p756
V100000343992049
p757
ssVmessage
p758
V\u6bcf\u5929\u90fd\u80fd\u5e73\u5b89\u5feb\u6a02^^
p759
sVid
p760
V118250504903757_295965680465571_3456299
p761
sa(dp762
Vfrom
p763
(dp764
Vname
p765
V\u5f6d\u4ed4
p766
sVid
p767
V100000253161353
p768
ssVmessage
p769
V\u60c5\u4eba\u7bc0\u5feb\u6a02 \u99ac\u7e3d\u7d71:*
p770
sVid
p771
V118250504903757_295965680465571_3456301
p772
sa(dp773
Vfrom
p774
(dp775
Vname
p776
VTantan Popo
p777
sVid
p778
V100001254873241
p779
ssVmessage
p780
V\u592b\u5987\u5e78\u798f\u5feb\u4e50
p781
sVid
p782
V118250504903757_295965680465571_3456302
p783
sasVupdated_time
p784
V2012-02-14T03:23:53+0000
p785
sVlikes
p786
(dp787
Vcount
p788
I90095
ssVmessage
p789
V\u4eca\u5929\u662f\u60c5\u4eba\u7bc0\uff0c\u9019\u500b\u65e5\u5b50\u6700\u91cd\u8981\u610f\u7fa9\u4e0d\u5728\u65bc\u6602\u8cb4\u7684\u79ae\u7269\u6216\u8c6a\u83ef\u5927\u9910\uff0c\u800c\u662f\u5411\u5fc3\u4e0a\u4eba\u81f4\u4e0a\u7531\u8877\u7684\u611f\u8b1d\u3002\u8b1d\u8b1d\u5979/\u4ed6\u7684\u76f8\u89aa\u76f8\u611b\u3001\u76f8\u77e5\u76f8\u60dc\uff0c\u8b93\u6211\u5011\u6709\u66f4\u7f8e\u6eff\u7684\u4eba\u751f\u3002 \u000a\u000a\u7576\u7136\uff0c\u4e09\u5341\u4e94\u5e74\u4f86\uff0c\u7f8e\u9752\u70ba\u6211\u7684\u4ed8\u51fa\u8207\u72a7\u7272\u5982\u6b64\u9245\u5927\uff0c\u6211\u5c0d\u5979\u7684\u611f\u6fc0\uff0c\u7d55\u975e\u9019\u7bc7\u77ed\u6587\u6240\u80fd\u8868\u9054\u3002\u8a18\u5f97\u6211\u5728\u7f8e\u570b\u7559\u5b78\u968e\u6bb5\uff0c\u7f8e\u9752\u5c31\u8eab\u517c\u6578\u8077\u8cfa\u53d6\u751f\u6d3b\u8cbb\uff0c\u597d\u8b93\u6211\u5b89\u5fc3\u8b80\u66f8\u3002\u6211\u5b78\u6210\u6b78\u570b\u5f8c\uff0c\u5979\u4e00\u9762\u5de5\u4f5c\uff0c\u4e00\u9762\u7167\u9867\u5169\u500b\u5e74\u5e7c\u7684\u5973\u5152\uff0c\u881f\u71ed\u5169\u982d\u71d2\uff0c\u5f9e\u4e0d\u6028\u8f9b\u52de\u3002\u56db\u5e74\u524d\u6211\u9078\u4e0a\u7e3d\u7d71\u4e4b\u5f8c\uff0c\u7f8e\u9752\u70ba\u4e86\u907f\u5acc\uff0c\u6c7a\u5b9a\u653e\u68c4\u5979\u5fc3\u611b\u7684\u9280\u884c\u6cd5\u52d9\u5de5\u4f5c\uff0c\u63d0\u524d\u9000\u4f11\uff0c\u5c08\u5fc3\u6295\u5165\u516c\u76ca\uff0c\u8b93\u7b2c\u4e00\u592b\u4eba\u7684\u89d2\u8272\u66f4\u7b26\u5408\u4eba\u6c11\u671f\u5f85\u3002\u5beb\u5230\u9019\u88e1\uff0c\u5fc3\u982d\u7684\u4e0d\u6368\u8207\u611f\u6fc0\uff0c\u5be6\u5728\u96e3\u4ee5\u8a00\u5ba3\u3002 \u000a\u000a\u6211\u64d4\u4efb\u516c\u807731\u5e74\uff0c\u7f8e\u9752\u5c31\u662f\u5bb6\u4e2d\u6700\u5fe0\u8aa0\u7684\u53cd\u5c0d\u9ee8\uff0c\u96a8\u6642\u63d0\u9192\u6211\uff0c\u4e0d\u8981\u8f9c\u8ca0\u4eba\u6c11\u7684\u671f\u5f85\u8207\u80a9\u982d\u7684\u8cac\u4efb\u3002\u9019\u6b21\u6fc0\u70c8\u7684\u7e3d\u7d71\u5927\u9078\uff0c\u7e31\u4f7f\u8170\u75db\u672a\u7652\uff0c\u5979\u4f9d\u820a\u8ce3\u529b\u4e0b\u9109\u62dc\u7968\uff0c\u5168\u53f0\u5954\u6ce2\uff0c\u4eba\u6c23\u6bd4\u6211\u9084\u65fa\u3002\u56de\u9996\u4f86\u6642\u8def\uff0c\u5343\u8a00\u842c\u8a9e\u96e3\u4ee5\u5f62\u5bb9\u6211\u7684\u5e78\u904b\uff0c\u6709\u9019\u9ebc\u597d\u7684\u727d\u624b\u4e00\u8def\u76f8\u4f34\uff0c\u65e2\u80fd\u76f8\u592b\u6559\u5b50\uff0c\u53c8\u80fd\u76f8\u8cac\u4ee5\u7fa9\u3002\u5f97\u59bb\u5982\u6b64\uff0c\u592b\u5fa9\u4f55\u6c42\uff1f  \u000a\u000a\u6709\u4e00\u9996\u7f8e\u9752\u975e\u5e38\u559c\u611b\u7684\u6b4c\u53eb\u505a\u300c\u7b8f\u300d\uff0c\u6b4c\u8a5e\u610f\u5883\u8207\u6b4c\u66f2\u65cb\u5f8b\u90fd\u4ee4\u6709\u60c5\u4eba\u7121\u9650\u56ae\u5f80\uff1a\u300c\u5929\u6709\u591a\u9577\uff0c\u5730\u6709\u591a\u4e45\uff1f\u5929\u771f\u7684\u4f60\uff0c\u66fe\u5982\u6b64\u554f\u6211\uff0c\u8a31\u4e0b\u7684\u627f\u8afe\uff0c\u8981\u4e00\u751f\u76f8\u5b88\u3002\u300d\u6211\u5728\u65e5\u524d\u7684\u4e00\u5834\u6625\u9152\u5bb4\u4e0a\u516c\u958b\u6f14\u5531\uff0c\u4e26\u737b\u7d66\u7f8e\u9752\u3002\u7576\u6642\u9583\u904e\u8166\u6d77\u7684\uff0c\u5c31\u662f\u6211\u5006\u4e09\u5341\u591a\u5e74\u4f86\u7684\u9ede\u9ede\u6ef4\u6ef4\u3002\u7576\u6211\u5531\u5230\u90a3\u4e00\u6bb5\uff0c\u5fc3\u4e2d\u5145\u6eff\u4e86\u6eab\u99a8\u5e78\u798f\u7684\u611f\u89ba\u3002 \u000a\u000a\u9019\u53e5\u8a71\u4e5f\u8a31\u5f88\u666e\u901a\uff0c\u4f46\u537b\u662f\u6211\u6b64\u523b\u6700\u771f\u5be6\u7684\u611f\u53d7\uff0c\u300c\u7f8e\u9752\uff0c\u8b1d\u8b1d\u59b3\uff01\u300d
p790
sVid
p791
V118250504903757_295965680465571
p792
sVcomments
p793
(dp794
Vcount
p795
I2962
ssa(dp796
Vfrom
p797
(dp798
Vcategory
p799
VPolitician
p800
sVid
p801
V118250504903757
p802
sVname
p803
V\u99ac\u82f1\u4e5d\u7e3d\u7d71
p804
ssg12
(lp805
(dp806
Vfrom
p807
(dp808
Vname
p809
V\u90b1\u8056\u6d32
p810
sVid
p811
V100000165820183
p812
ssVmessage
p813
V\u99ac\u82f1\u4e5d!!!\u51cd\u849c\u51cd\u849c!!!
p814
sVid
p815
V118250504903757_273891046006368_3204021
p816
sa(dp817
Vfrom
p818
(dp819
Vname
p820
VDemi JJ
p821
sVid
p822
V100000239033028
p823
ssVmessage
p824
Vy_y
p825
sVid
p826
V118250504903757_273891046006368_3204023
p827
sa(dp828
Vfrom
p829
(dp830
Vname
p831
V\u674e\u5fd7\u54a9
p832
sVid
p833
V1841653278
p834
ssVmessage
p835
V\u4f60\u4e0d\u662f\u5728\u9020\u52e2\u665a\u6703\u55ce??\u79d1
p836
sVid
p837
V118250504903757_273891046006368_3204025
p838
sa(dp839
Vfrom
p840
(dp841
Vname
p842
V\u5c48\u67d4\u67d4
p843
sVid
p844
V100001312774295
p845
ssVmessage
p846
V\u99ac\u5230\u6210\u529f !!!!!!!!!!!!!!!!!!!!!!\u000a\u52a0\u6cb9\u52a0\u6cb9\u6211\u611b\u4f60 :*
p847
sVid
p848
V118250504903757_273891046006368_3204027
p849
sa(dp850
Vfrom
p851
(dp852
Vname
p853
V\u5289\u76c8\u76c8
p854
sVid
p855
V100001998466712
p856
ssVmessage
p857
V\u52a0\u6cb9~
p858
sVid
p859
V118250504903757_273891046006368_3204030
p860
sa(dp861
Vfrom
p862
(dp863
Vname
p864
V\u8881\u828b\u5712
p865
sVid
p866
V100000108865552
p867
ssVmessage
p868
V\u52a0\u6cb9!
p869
sVid
p870
V118250504903757_273891046006368_3204031
p871
sa(dp872
Vfrom
p873
(dp874
Vname
p875
VYu Yi Lin
p876
sVid
p877
V100001235101486
p878
ssVmessage
p879
V\u6295\u4f60!!
p880
sVid
p881
V118250504903757_273891046006368_3204032
p882
sa(dp883
Vfrom
p884
(dp885
Vname
p886
V\u5433\u79cb\u71d5
p887
sVid
p888
V100000048757936
p889
ssVmessage
p890
V\u99ac\u82f1\u4e5d!!!\u51cd\u849c\u51cd\u849c!!!
p891
sVid
p892
V118250504903757_273891046006368_3204036
p893
sa(dp894
Vfrom
p895
(dp896
Vname
p897
V\u5f35\u4ef2\u826f
p898
sVid
p899
V1775337001
p900
ssVmessage
p901
V\u95b1
p902
sVid
p903
V118250504903757_273891046006368_3204038
p904
sa(dp905
Vfrom
p906
(dp907
Vname
p908
V\u99ac\u6d77\u97dc
p909
sVid
p910
V100001920363196
p911
ssVmessage
p912
V\u52a0\u6cb9!
p913
sVid
p914
V118250504903757_273891046006368_3204039
p915
sasVupdated_time
p916
V2012-01-13T13:06:11+0000
p917
sVlikes
p918
(dp919
Vcount
p920
I86238
ssVmessage
p921
V\u674e\u524d\u7e3d\u7d71\u8aaa\uff0c\u8981\u7d66\u53f0\u7063\u4e00\u500b\u6a5f\u6703\uff0c\u6211\u975e\u5e38\u8d0a\u6210\u3002\u4f46\u771f\u6b63\u7684\u95dc\u9375\u5728\u65bc\uff0c\u53f0\u7063\u8981\u4e00\u500b\u600e\u6a23\u7684\u6a5f\u6703\uff1f\u6211\u5011\u8981\u600e\u9ebc\u7d66\u53f0\u7063\u6a5f\u6703\uff1f\u000a\u53f0\u7063\u4e0d\u8981\u8caa\u6c61\u8150\u6557\uff0c\u8981\u7684\u662f\u6e05\u5ec9\u4e7e\u6de8\u7684\u653f\u5e9c\uff01\u000a\u53f0\u7063\u4e0d\u8981\u5206\u5316\u6495\u88c2\uff0c\u8981\u7684\u662f\u5e36\u7d66\u793e\u6703\u516c\u5e73\u6b63\u7fa9\u3001\u771f\u6b63\u7167\u9867\u5f31\u52e2\u7684\u653f\u5e9c\uff01\u000a\u53f0\u7063\u4e0d\u8981\u9396\u570b\u5c0d\u7acb\uff0c\u8981\u7684\u662f\u80fd\u5920\u5e36\u7d66\u5169\u5cb8\u548c\u5e73\u3001\u5e36\u7d66\u53f0\u7063\u7e41\u69ae\u7684\u653f\u5e9c\uff01\u000a\u9019\u500b\u653f\u5e9c\uff0c\u8981\u80fd\u5275\u9020\u4e00\u500b\u516c\u5e73\u8207\u5b89\u5b9a\u7684\u74b0\u5883\uff0c\u8b93\u6bcf\u4e00\u500b\u4eba\uff0c\u5c24\u5176\u662f\u5e74\u8f15\u4eba\uff0c\u53ef\u4ee5\u76e1\u60c5\u81ea\u7531\u7684\u63ee\u7051\uff0c\u767c\u63ee\u624d\u80fd\u3001\u767c\u63ee\u5275\u610f\uff0c\u53bb\u8ffd\u6c42\u8207\u5be6\u73fe\u81ea\u5df1\u7684\u5922\u60f3\u3002\u000a\u9019\u500b\u653f\u5e9c\uff0c\u4e0d\u6703\u5230\u8655\u88fd\u9020\u5916\u4ea4\u70fd\u706b\uff0c\u6703\u52aa\u529b\u62d3\u5c55\u53f0\u7063\u7684\u570b\u969b\u7a7a\u9593\uff0c\u8b93\u53f0\u7063\u4eba\u6c11\u62ff\u8457\u4e2d\u83ef\u6c11\u570b\u8b77\u7167\u53ef\u4ee5\u4e16\u754c\u8d70\u900f\u900f\uff0c\u53d7\u5230\u4e16\u4eba\u6b61\u8fce\uff0c\u8d70\u8def\u6709\u98a8\uff01\u000a\u9019\u500b\u653f\u5e9c\uff0c\u6703\u628a\u7167\u9867\u5f31\u52e2\u7576\u6210\u6700\u91cd\u8981\u7684\u4efb\u52d9\uff0c\u5728\u4fc3\u9032\u7d93\u6fdf\u6210\u9577\u7684\u540c\u6642\uff0c\u4e5f\u6703\u52aa\u529b\u7684\u505a\u597d\u793e\u6703\u798f\u5229\uff0c\u8b93\u66f4\u591a\u7684\u5f31\u52e2\u7fa4\u773e\u5f97\u5230\u7167\u9867\u3002\u000a\u9019\u624d\u662f\u7d66\u53f0\u7063\u4e00\u500b\u6a5f\u6703\u3002\u000a\u660e\u5929\u5c31\u8981\u6295\u7968\u4e86\uff0c\u6211\u5011\u8981\u7559\u7d66\u53f0\u7063\u4ec0\u9ebc\u6a23\u7684\u6a5f\u6703\uff1f\u7559\u7d66\u5b50\u5b6b\u4ec0\u9ebc\u6a23\u7684\u6a5f\u6703\uff1f\u7b54\u6848\u5c31\u5728\u5927\u5bb6\u624b\u4e2d\u7684\u9078\u7968\uff0c\u5927\u5bb6\u8aaa\u5c0d\u4e0d\u5c0d\uff1f\u8b93\u6211\u5011\u4e00\u8d77\u7d66\u53f0\u7063\u4e00\u500b\u9577\u6cbb\u4e45\u5b89\u7684\u6a5f\u6703\u3001\u8b93\u6211\u5011\u4e00\u8d77\u7d66\u53f0\u7063\u4e00\u500b\u548c\u5e73\u5b89\u5b9a\u7684\u6a5f\u6703\u3001\u8b93\u6211\u5011\u4e00\u8d77\u7d66\u53f0\u7063\u4e00\u500b\u6e05\u5ec9\u6b63\u7fa9\u7684\u6a5f\u6703\uff01
p922
sVid
p923
V118250504903757_273891046006368
p924
sVcomments
p925
(dp926
Vcount
p927
I11034
ssa(dp928
Vfrom
p929
(dp930
Vcategory
p931
VPolitician
p932
sVid
p933
V118250504903757
p934
sVname
p935
V\u99ac\u82f1\u4e5d\u7e3d\u7d71
p936
ssg12
(lp937
(dp938
Vfrom
p939
(dp940
Vname
p941
V\u8a79\u5bf6
p942
sVid
p943
V100001124157888
p944
ssVmessage
p945
V\u8b9a:D
p946
sVid
p947
V118250504903757_506495896079214_73871917
p948
sa(dp949
Vfrom
p950
(dp951
Vname
p952
V\u6e67\u5d34
p953
sVid
p954
V100000282785594
p955
ssVmessage
p956
V\u982d\u9999
p957
sVid
p958
V118250504903757_506495896079214_73871915
p959
sa(dp960
Vfrom
p961
(dp962
Vname
p963
VAngelo Po
p964
sVid
p965
V100000136597136
p966
ssVmessage
p967
V\u5e36\u8cfd\u7121\u8aa4
p968
sVid
p969
V118250504903757_506495896079214_73871914
p970
sa(dp971
Vfrom
p972
(dp973
Vname
p974
VJason Lai
p975
sVid
p976
V100000616259142
p977
ssVmessage
p978
V\u597d\u5566\uff5e\u4e0d\u9178\u4f60\u5e36\u8cfd......\u000a\u4eca\u65e5\u6230\u72af\u662f\u6797\u76ca\u4e16\u5c0d\u5427\uff1f\u8acb\u5373\u523b\u5c0d\u4ed6\u57f7\u884c\u69cd\u6583\uff01
p979
sVid
p980
V118250504903757_506495896079214_73871916
p981
sa(dp982
Vfrom
p983
(dp984
Vname
p985
V\u8521\u65e5\u5049
p986
sVid
p987
V100000072686552
p988
ssVmessage
p989
V\u6211\u611b\u5abd\u5abd
p990
sVid
p991
V118250504903757_506495896079214_73871920
p992
sa(dp993
Vfrom
p994
(dp995
Vname
p996
VSky Wu
p997
sVid
p998
V100000131769144
p999
ssVmessage
p1000
V\u958b\u653e\u70ae\u64ca
p1001
sVid
p1002
V118250504903757_506495896079214_73871919
p1003
sa(dp1004
Vfrom
p1005
(dp1006
Vname
p1007
VRobert Chen
p1008
sVid
p1009
V1228805707
p1010
ssVmessage
p1011
V(Y)
p1012
sVid
p1013
V118250504903757_506495896079214_73871921
p1014
sa(dp1015
Vfrom
p1016
(dp1017
Vname
p1018
V\u6797\u6cf0\u5112
p1019
sVid
p1020
V100001432955654
p1021
ssVmessage
p1022
VYo
p1023
sVid
p1024
V118250504903757_506495896079214_73871924
p1025
sa(dp1026
Vfrom
p1027
(dp1028
Vname
p1029
V\u5b50\u76ca
p1030
sVid
p1031
V100002361205656
p1032
ssVmessage
p1033
V\u5225\u5728\u8b1b\u4e86 \uff0c \u518d\u8b1b\u4e0b\u6b21\u641e\u4e0d\u597d\u9032\u4e0d\u4e86\u4e86 \uff0c \u62dc\u8a17\u653e\u904e\u4e2d\u83ef\u968a ..
p1034
sVid
p1035
V118250504903757_506495896079214_73871922
p1036
sa(dp1037
Vfrom
p1038
(dp1039
Vname
p1040
VJack Song
p1041
sVid
p1042
V100003054577569
p1043
ssVmessage
p1044
Vhttps://www.facebook.com/matrixchannel/posts/161954750627438
p1045
sVid
p1046
V118250504903757_506495896079214_73871925
p1047
sasVupdated_time
p1048
V2013-03-09T15:50:01+0000
p1049
sVlikes
p1050
(dp1051
Vcount
p1052
I84105
ssVmessage
p1053
V\u8b1d\u8b1d\u4e2d\u83ef\u968a\u5e36\u7d66\u6211\u5011\u4e00\u8d9f\u7f8e\u597d\u7684\u65c5\u7a0b\uff0c\u6211\u77e5\u9053\u5927\u5bb6\u90fd\u76e1\u4e86\u529b\u3002\u5927\u5bb6\u7684\u5fc3\u60c5\u4e5f\u8a31\u4f4e\u843d\uff0c\u4e5f\u8a31\u6703\u81ea\u8cac\uff0c\u4f46\u9b25\u5fd7\u4e0d\u80fd\u55aa\u5931\uff0c\u58eb\u6c23\u8981\u6301\u7e8c\u6602\u63da\uff0c\u6211\u5011\u7684\u8def\u9084\u5f88\u9577\uff0c\u53ea\u6709\u6c38\u4e0d\u653e\u68c4\uff0c\u624d\u80fd\u7d42\u5c07\u52dd\u5229\uff01\u000a\u000a\u89aa\u611b\u7684\u7db2\u53cb\u5011\uff1a\u8b93\u6211\u5011\u518d\u6b21\u4f38\u51fa\u5927\u62c7\u6307\uff0c\u7d66\u4e2d\u83ef\u968a\u4e00\u500b\u8b9a\uff01
p1054
sVid
p1055
V118250504903757_506495896079214
p1056
sVcomments
p1057
(dp1058
Vcount
p1059
I10162
ssa(dp1060
Vfrom
p1061
(dp1062
Vcategory
p1063
VPolitician
p1064
sVid
p1065
V118250504903757
p1066
sVname
p1067
V\u99ac\u82f1\u4e5d\u7e3d\u7d71
p1068
ssg12
(lp1069
(dp1070
Vfrom
p1071
(dp1072
Vname
p1073
V\u6d82\u6ce3\u6c96
p1074
sVid
p1075
V100004418773004
p1076
ssVmessage
p1077
V-.- \u53ef\u60e1 \u5dee\u9ede\u982d\u9999
p1078
sVid
p1079
V118250504903757_505994226129381_73854255
p1080
sa(dp1081
Vfrom
p1082
(dp1083
Vname
p1084
V\u90ed\u54f2\u744b
p1085
sVid
p1086
V100002402268167
p1087
ssVmessage
p1088
V\u4f60\u771f\u7684\u5e36\u8cfd
p1089
sVid
p1090
V118250504903757_505994226129381_73854254
p1091
sa(dp1092
Vfrom
p1093
(dp1094
Vname
p1095
V\u8cf4\u76ca\u695a
p1096
sVid
p1097
V100000697492376
p1098
ssVmessage
p1099
V\u5b89\u5b89
p1100
sVid
p1101
V118250504903757_505994226129381_73854256
p1102
sa(dp1103
Vfrom
p1104
(dp1105
Vname
p1106
V\u8521\u4e3b\u9867
p1107
sVid
p1108
V100000238724520
p1109
ssVmessage
p1110
V\u4f60\u662f\u4e0d\u662f\u53c8\u5077\u770b\u4e86
p1111
sVid
p1112
V118250504903757_505994226129381_73854257
p1113
sa(dp1114
Vfrom
p1115
(dp1116
Vname
p1117
V\u8a31\u6548\u7db1
p1118
sVid
p1119
V100001559908826
p1120
ssVmessage
p1121
V^_^
p1122
sVid
p1123
V118250504903757_505994226129381_73854259
p1124
sa(dp1125
Vfrom
p1126
(dp1127
Vname
p1128
VDong Lin Lee
p1129
sVid
p1130
V100000361203623
p1131
ssVmessage
p1132
V\u982d\u52a0\u6cb9!
p1133
sVid
p1134
V118250504903757_505994226129381_73854258
p1135
sa(dp1136
Vfrom
p1137
(dp1138
Vname
p1139
V\u5289\u535a\u8ed2
p1140
sVid
p1141
V100000318230712
p1142
ssVmessage
p1143
V\u982d\u9999
p1144
sVid
p1145
V118250504903757_505994226129381_73854261
p1146
sa(dp1147
Vfrom
p1148
(dp1149
Vname
p1150
V\u4f55\u5409\u745e
p1151
sVid
p1152
V100000741556351
p1153
ssVmessage
p1154
V\u982d\u9999??
p1155
sVid
p1156
V118250504903757_505994226129381_73854260
p1157
sa(dp1158
Vfrom
p1159
(dp1160
Vname
p1161
V\u9178\u6885\u8d85\u4eba
p1162
sVid
p1163
V100000921530150
p1164
ssVmessage
p1165
V\u5e79\u53c8\u662f\u4f60\u5e36\u8cfd\u4e86
p1166
sVid
p1167
V118250504903757_505994226129381_73854263
p1168
sa(dp1169
Vfrom
p1170
(dp1171
Vname
p1172
V\u5f35\u79a6\u5bd2
p1173
sVid
p1174
V100000203221592
p1175
ssVmessage
p1176
V\u660e\u5929\u52a0\u6cb9!!!!
p1177
sVid
p1178
V118250504903757_505994226129381_73854262
p1179
sasVupdated_time
p1180
V2013-03-08T15:10:00+0000
p1181
sVlikes
p1182
(dp1183
Vcount
p1184
I83495
ssVmessage
p1185
V\u596e\u6230\u4e0d\u61c8\u7684\u52c7\u6c23\u3001\u9b25\u5fd7\u4e0d\u6ec5\u7684\u62da\u52c1\uff0c\u4e2d\u83ef\u5065\u5152\u5c31\u662f\u9019\u4e00\u80a1\u5805\u97cc\u7684\u53f0\u7063\u7cbe\u795e\uff0c\u6df1\u6df1\u9f13\u821e\u8457\u9019\u7247\u571f\u5730\u4e0a\u7684\u6bcf\u4e00\u500b\u4eba\u3001\u611f\u52d5\u4e86\u4f60\u6211\u3002\u6bd4\u8cfd\u7e3d\u6709\u52dd\u8ca0\uff0c\u8f03\u52c1\u96e3\u514d\u6709\u8f38\u8d0f\u3002\u5404\u4f4d\u89aa\u611b\u7684\u7db2\u53cb\uff0c\u8f38\u8d0f\u4e0d\u5728\u4e00\u6642\u3002\u4f86\u5427\uff01\u8b93\u6211\u5011\u518d\u4e00\u6b21\u7684\u9f13\u638c\uff0c\u5927\u8072\u7684\u5436\u558a\uff0c\u7e7c\u7e8c\u70ba\u6211\u5011\u6240\u71b1\u611b\u7684\u4e2d\u83ef\u968a\u52a0\u6cb9\uff01GoGoGo\uff01
p1186
sVid
p1187
V118250504903757_505994226129381
p1188
sVcomments
p1189
(dp1190
Vcount
p1191
I11885
ssa(dp1192
Vlikes
p1193
(dp1194
Vcount
p1195
I78197
ssVfrom
p1196
(dp1197
Vcategory
p1198
VPolitician
p1199
sVid
p1200
V118250504903757
p1201
sVname
p1202
V\u99ac\u82f1\u4e5d\u7e3d\u7d71
p1203
ssVcomments
p1204
(dp1205
Vcount
p1206
I4049
ssVupdated_time
p1207
V2012-01-23T02:37:03+0000
p1208
sg12
(lp1209
(dp1210
Vfrom
p1211
(dp1212
Vname
p1213
VAlice Hsieh
p1214
sVid
p1215
V100002599043522
p1216
ssVmessage
p1217
V\u99ac\u7e3d\u7d71'\u7f8e
p1218
sVid
p1219
V118250504903757_280497972012342_827226
p1220
sa(dp1221
Vfrom
p1222
(dp1223
Vname
p1224
V\u66fe\u6797\u91d1\u73e0
p1225
sVid
p1226
V100002745795366
p1227
ssVmessage
p1228
V\u7e3d\u7d71\u65b0\u5e74\u597d.\u7f8e\u9752\u592b\u4eba\u5065\u5eb7.\u5feb\u6a02
p1229
sVid
p1230
V118250504903757_280497972012342_827227
p1231
sa(dp1232
Vfrom
p1233
(dp1234
Vname
p1235
V\u5289\u5927\u5104
p1236
sVid
p1237
V100002510534966
p1238
ssVmessage
p1239
V\u9858\u99ac\u7e3d\u7d71 \u5c0d\u76ee\u524d\u4f0a\u4e9b\u75ab\u82d7\u7684\u7814\u767c\u591a\u7763\u4fc3.
p1240
sVid
p1241
V118250504903757_280497972012342_827230
p1242
sa(dp1243
Vfrom
p1244
(dp1245
Vname
p1246
V\u6731\u53ef\u53ef
p1247
sVid
p1248
V100000473433009
p1249
ssVmessage
p1250
V\u99ac\u7e3d\u7d71\u8cc0\u7e3d\u7d71\u592b\u4eba\u65b0\u5e74\u5feb\u6a02\u5225\u7406\u6703\u6d41\u8a00
p1251
sVid
p1252
V118250504903757_280497972012342_827231
p1253
sa(dp1254
Vfrom
p1255
(dp1256
Vname
p1257
VHui-Xiong Zhong
p1258
sVid
p1259
V100000105355776
p1260
ssVmessage
p1261
V\u4e5f\u795d\u798f\u7e3d\u7d71\u3000\u65b0\u5e74\u5feb\u6a02\u3000\u9f8d\u5e74\u884c\u5927\u904b\uff01\u3000\u4eca\u5e74\u4e5f\u90fd\u300e\u650f\u300f\u65fa\u5566\uff01o(^w^)o
p1262
sVid
p1263
V118250504903757_280497972012342_827232
p1264
sa(dp1265
Vfrom
p1266
(dp1267
Vname
p1268
V\u771f\u9bae\u70d8\u7119
p1269
sVid
p1270
V100001443326349
p1271
ssVmessage
p1272
V\u7e3d\u7d71\u52a0\u6cb9!\u65b0\u5e74\u597d!
p1273
sVid
p1274
V118250504903757_280497972012342_827233
p1275
sa(dp1276
Vfrom
p1277
(dp1278
Vname
p1279
V\u5eb7\u5947\u624d
p1280
sVid
p1281
V100001468956648
p1282
ssVmessage
p1283
V\u4f60\u7576\u9078\u53f0\u7063\u5c31\u7d66\u6211\u641e\u597d
p1284
sVid
p1285
V118250504903757_280497972012342_827234
p1286
sa(dp1287
Vfrom
p1288
(dp1289
Vname
p1290
V\u5e78\u7b26\u4e00\u5bb6
p1291
sVid
p1292
V100001168189958
p1293
ssVmessage
p1294
V@@~\u4ed6\u53c8\u4e0d\u662f\u5168\u90e8\u90fd\u7c21\u9ad4\u5b57...\u4ed6\u6709\u7a7f\u63d2\u82f1\u6587..\u59b3\u5011\u600e\u9ebc\u4e0d\u8aaa\u311d\u53eb\u4ed6\u4e0d\u8981\u5beb\u82f1\u6587\u5462?...\u771f\u5947\u602a..
p1295
sVid
p1296
V118250504903757_280497972012342_827235
p1297
sa(dp1298
Vfrom
p1299
(dp1300
Vname
p1301
V\u9673\u5efa\u83ef
p1302
sVid
p1303
V100001521342064
p1304
ssVmessage
p1305
V\u7e3d\u7d71\u65b0\u5e74\u597d,\u65b0\u5e74\u5feb\u6a02\u62c9 ^^
p1306
sVid
p1307
V118250504903757_280497972012342_827236
p1308
sa(dp1309
Vfrom
p1310
(dp1311
Vname
p1312
V\u97fb\u9716
p1313
sVid
p1314
V100001862545356
p1315
ssVmessage
p1316
V\u99ac\u7e3d\u7d71\u65b0\u5e74\u5feb\u6a02\u5594^3^
p1317
sVid
p1318
V118250504903757_280497972012342_827238
p1319
sasVmessage
p1320
V\u5404\u4f4d\u7db2\u53cb\uff0c\u6211\u89aa\u624b\u5beb\u4e86\u4e00\u5f35\u8cc0\u5361\uff0c\u795d\u5927\u5bb6\u9f8d\u5e74\u884c\u5927\u904b\u3002
p1321
sVid
p1322
V118250504903757_280497972012342
p1323
sasS'top10_commentmost_posts'
p1324
(lp1325
(dp1326
Vfrom
p1327
(dp1328
Vcategory
p1329
VPolitician
p1330
sVid
p1331
V118250504903757
p1332
sVname
p1333
V\u99ac\u82f1\u4e5d\u7e3d\u7d71
p1334
ssg12
(lp1335
(dp1336
Vfrom
p1337
(dp1338
Vname
p1339
V\u9673\u4fe1\u6587
p1340
sVid
p1341
V100001211514514
p1342
ssVmessage
p1343
V!!
p1344
sVid
p1345
V118250504903757_326930314035774_3724441
p1346
sa(dp1347
Vfrom
p1348
(dp1349
Vname
p1350
V\u5f35\u65ed\u5ef7
p1351
sVid
p1352
V100002310881716
p1353
ssVmessage
p1354
V\u6c34
p1355
sVid
p1356
V118250504903757_326930314035774_3724443
p1357
sa(dp1358
Vfrom
p1359
(dp1360
Vname
p1361
VLiu Buquan
p1362
sVid
p1363
V100001288801183
p1364
ssVmessage
p1365
Vhttp://www.youtube.com/watch?v=p4N804Q3f7k&feature=related
p1366
sVid
p1367
V118250504903757_326930314035774_3724445
p1368
sa(dp1369
Vfrom
p1370
(dp1371
Vname
p1372
VChung-Chun Chen
p1373
sVid
p1374
V100000960261945
p1375
ssVmessage
p1376
V\u5e0c\u671b\u85aa\u6c34\u6f32\u5c31\u597d\u4e86!
p1377
sVid
p1378
V118250504903757_326930314035774_3724446
p1379
sa(dp1380
Vfrom
p1381
(dp1382
Vname
p1383
V\u777f\u6210\u3001
p1384
sVid
p1385
V100000678133893
p1386
ssVmessage
p1387
V??
p1388
sVid
p1389
V118250504903757_326930314035774_3724447
p1390
sa(dp1391
Vfrom
p1392
(dp1393
Vname
p1394
VRay Liang
p1395
sVid
p1396
V100000004021526
p1397
ssVmessage
p1398
V\u3002
p1399
sVid
p1400
V118250504903757_326930314035774_3724449
p1401
sa(dp1402
Vfrom
p1403
(dp1404
Vname
p1405
VAven Yan
p1406
sVid
p1407
V100000112525409
p1408
ssVmessage
p1409
V\u559d\u559d
p1410
sVid
p1411
V118250504903757_326930314035774_3724448
p1412
sa(dp1413
Vfrom
p1414
(dp1415
Vname
p1416
V\u8a31\u5609\u5b8f
p1417
sVid
p1418
V100000585452269
p1419
ssVmessage
p1420
VNO2
p1421
sVid
p1422
V118250504903757_326930314035774_3724451
p1423
sa(dp1424
Vfrom
p1425
(dp1426
Vname
p1427
V\u8521\u627f\u6069
p1428
sVid
p1429
V100001709416203
p1430
ssVmessage
p1431
V\u751a\u9ebc\u90fd\u5728\u6f32\u6f32\u6f32 \u5c31\u662f\u85aa\u6c34\u6c92\u6f32\u6f32\u6f32~~~
p1432
sVid
p1433
V118250504903757_326930314035774_3724454
p1434
sa(dp1435
Vfrom
p1436
(dp1437
Vname
p1438
V\u5f35\u5fd7\u6db5
p1439
sVid
p1440
V100000940904475
p1441
ssVmessage
p1442
V\u99ac\u7e3d\u7d71\u8acb\u4e0d\u8981\u518d\u8abf\u6f32\u6c11\u751f\u7528\u54c1\u4e86
p1443
sVid
p1444
V118250504903757_326930314035774_3724453
p1445
sasVupdated_time
p1446
V2012-04-02T14:30:58+0000
p1447
sVlikes
p1448
(dp1449
Vcount
p1450
I22033
ssVmessage
p1451
V\u5f9e\u4eca\u5929\u958b\u59cb\uff0c\u653f\u5e9c\u53d6\u6d88\u5df2\u7d93\u7dad\u630116\u500b\u6708\u7684\u300c\u6cb9\u50f9\u6e1b\u534a\u7de9\u6f32\u6a5f\u5236\u300d\uff0c\u800c\u300c\u96fb\u50f9\u5408\u7406\u5316\u300d\u65b9\u6848\u4e5f\u6b63\u5728\u8a0e\u8ad6\u4e4b\u4e2d\u3002\u6211\u77e5\u9053\uff0c\u9019\u4e00\u6ce2\u8abf\u6574\u4e00\u5b9a\u6703\u8b93\u6c11\u773e\u652f\u51fa\u589e\u52a0\u3001\u9020\u6210\u751f\u6d3b\u8ca0\u64d4\uff0c\u4f46\u5168\u76e4\u8003\u616e\u570b\u5bb6\u9577\u4e45\u767c\u5c55\uff0c\u6211\u5e0c\u671b\u5927\u5bb6\u4e86\u89e3\uff0c\u9019\u662f\u500b\u5fc5\u9808\u505a\u7684\u6c7a\u5b9a\u3002\u000a \u000a\u5f9e2008\u5e74\u91d1\u878d\u6d77\u562f\u767c\u751f\u5f8c\uff0c\u5728\u653f\u5e9c\u548c\u4eba\u6c11\u7684\u5171\u540c\u52aa\u529b\u4e4b\u4e0b\uff0c\u6211\u5011\u6062\u5fa9\u4e86\u81fa\u7063\u7d93\u6fdf\u7684\u6d3b\u529b\uff0c\u4e5f\u7a69\u5b9a\u4e86\u7269\u50f9\u7684\u6c34\u6e96\u3002\u6bd4\u8d77\u4e9e\u6d32\u5404\u570b\uff0c\u53f0\u7063\u8fd1\u5e74\u4f86\u7269\u50f9\u6ce2\u52d5\u7a0b\u5ea6\u76f8\u5c0d\u8f03\u5c0f\uff0c\u6d88\u8cbb\u8005\u7269\u50f9\u6307\u6578\u5e74\u589e\u7387\u4e00\u76f4\u63a7\u5236\u57281.5%\u4ee5\u4e0b\u3002\u5728\u9019\u6a23\u7684\u524d\u63d0\u4e4b\u4e0b\uff0c\u6cb9\u6c23\u50f9\u683c\u7684\u8abf\u6574\uff0c\u653f\u5e9c\u4f9d\u5faa\u300c\u5408\u7406\u50f9\u683c\u300d\u3001\u300c\u7bc0\u80fd\u6e1b\u78b3\u300d\u3001\u300c\u7167\u9867\u6c11\u751f\u300d\u9019\u4e09\u500b\u539f\u5247\u4f86\u8fa6\u7406\uff0c\u8abf\u6574\u5f8c\u7684\u6cb9\u50f9\uff0c\u4ecd\u7136\u662f\u4e9e\u6d32\u9130\u8fd1\u7af6\u722d\u570b\u5bb6\u4e2d\u7684\u6700\u4f4e\u50f9\u683c\u3002\u000a \u000a\u53f0\u7063\u7684\u80fd\u6e9099.4\uff05\u4f9d\u8cf4\u9032\u53e3\uff0c\u9762\u5c0d\u570b\u969b\u6cb9\u50f9\u98c6\u6f32\uff0c\u96d6\u7136\u653f\u5e9c\u5fc5\u9808\u8abf\u6574\u6cb9\u50f9\uff0c\u4f46\u540c\u6642\u4e5f\u5805\u6301\u7167\u9867\u57fa\u5c64\u4eba\u6c11\u3001\u64f4\u5927\u88dc\u8cbc\u63aa\u65bd\u3002\u5c0d\u65bc\u6a5f\u8eca\u65cf\u52a0\u7528\u768492\u7121\u925b\u6c7d\u6cb9\u53ea\u88dc\u6f322.4\u5143\uff0c\u53cd\u4e4b\uff0c\u9ad8\u7d1a\u8f4e\u8eca\u52a0\u7528\u768498\u7121\u925b\u6c7d\u6cb9\u5247\u88dc\u6f323.7\u5143\uff1b\u70ba\u4e86\u6e1b\u5c11\u5f71\u97ff\u516c\u5171\u904b\u8f38\u696d\u8005\u751f\u8a08\uff0c\u5c0d\u65bc\u5ba2\u904b\u4ee5\u53ca\u8a08\u7a0b\u8eca\u6c7d\u6cb9\u7684\u88dc\u8cbc\uff0c\u4e5f\u5206\u5225\u5f9e\u6bcf\u516c\u53472.4\u5143\u548c2\u5143\u63d0\u9ad8\u52305\u5143\uff1b\u70ba\u4e86\u8b93\u5bb6\u5ead\u4e3b\u5a66\u3001\u5c0f\u5403\u6524\u8ca0\u64d4\u6e1b\u8f15\uff0c\u6876\u88dd\u74e6\u65af\u4eca\u65e5\u8d77\u6bcf\u516c\u65a4\u964d\u50f92\u5143(\u5e38\u752820\u516c\u65a4\u88dd\u74e6\u65af\uff0c\u6bcf\u6876\u53ef\u770140\u5143)\uff0c\u800c\u672c\u6708\u4efd\u5929\u7136\u6c23\u50f9\u683c\u4e5f\u78ba\u5b9a\u4e0d\u6f32\u50f9\uff0c\u6f01\u8239\u7528\u6cb9\u540c\u6a23\u4f9d\u724c\u50f9\u7dad\u6301\u88dc\u52a914\uff05\u3002\u000a \u000a16\u500b\u6708\u4ee5\u4f86\u570b\u969b\u6cb9\u50f9\u6f32\u5e45\u9ad8\u905443\uff05\uff0c\u7576\u6cb9\u50f9\u4e00\u76f4\u88ab\u58d3\u6291\uff0c\u96d6\u7136\u5927\u5bb6\u53ef\u4ee5\u52a0\u5230\u4fbf\u5b9c\u7684\u6cb9\uff0c\u4f46\u9577\u671f\u4ee5\u4f86\uff0c\u70ba\u4e86\u907f\u514d\u8667\u640d\uff0c\u570b\u5eab\u5c31\u5fc5\u9808\u88dc\u8cbc\u6cb9\u50f9\uff0c\u7b49\u540c\u65bc\u8b93\u5168\u9ad4\u7d0d\u7a05\u4eba\u88dc\u8cbc\u7528\u6cb9\u8005\uff0c\u800c\u4e14\u300e\u7528\u6cb9\u6108\u591a\uff0c\u88dc\u8cbc\u6108\u591a\u300f\uff0c\u9019\u4e26\u4e0d\u7b26\u5408\u793e\u6703\u516c\u5e73\u6b63\u7fa9\u539f\u5247\u3002\u6cb9\u50f9\u7684\u8abf\u6574\uff0c\u4e00\u65b9\u9762\u662f\u8981\u843d\u5be6\u300c\u4f7f\u7528\u8005\u4ed8\u8cbb\u300d\u7684\u6982\u5ff5\uff0c\u53e6\u4e00\u65b9\u9762\uff0c\u8eab\u70ba\u5730\u7403\u6751\u7684\u4e00\u4efd\u5b50\uff0c\u6211\u5011\u6bcf\u500b\u4eba\u90fd\u6709\u8cac\u4efb\u8abf\u6574\u751f\u6d3b\u7fd2\u6163\u3001\u7bc0\u80fd\u6e1b\u78b3\u3001\u6e1b\u5c11\u6d6a\u8cbb\uff0c\u70ba\u74b0\u4fdd\u76e1\u4e00\u4efd\u529b\u3002\u000a \u000a\u8fd1\u65e5\u793e\u6703\u5404\u754c\u5c0d\u4e2d\u6cb9\u3001\u53f0\u96fb\u7b49\u570b\u71df\u4e8b\u696d\u7684\u4eba\u4e8b\u85aa\u8cc7\u7d50\u69cb\u3001\u7d93\u71df\u7e3e\u6548\u9817\u6709\u8cea\u7591\uff0c\u6211\u5011\u4e5f\u807d\u5230\u4e86\u3002\u70ba\u4e86\u56de\u61c9\u5916\u754c\u7684\u671f\u5f85\uff0c\u7d93\u6fdf\u90e8\u5c07\u7acb\u5373\u6210\u7acb\u300c\u53f0\u96fb\u53ca\u4e2d\u6cb9\u516c\u53f8\u7d93\u71df\u6539\u5584\u5c0f\u7d44\u300d\uff0c\u6210\u54e1\u5305\u62ec\u6d88\u8cbb\u8005\u4ee3\u8868\u3001\u653f\u5e9c\u90e8\u9580\u3001\u5916\u90e8\u5c08\u5bb6\u8207\u7ba1\u7406\u5b78\u8005\uff0c\u5c0d\u53f0\u96fb\u548c\u4e2d\u6cb9\u7684\u7d93\u71df\u6548\u7387\u3001\u63a1\u8cfc\u5236\u5ea6\u3001\u4eba\u4e8b\u5236\u5ea6\u53ca\u6c11\u71df\u5316\u9032\u7a0b\u7b49\uff0c\u9032\u884c\u5168\u9762\u7684\u6aa2\u8a0e\u3002\u6211\u5df2\u7d93\u8981\u6c42\u7d93\u6fdf\u90e8\u5728\u4e09\u500b\u6708\u4e4b\u5167\uff0c\u63d0\u51fa\u53f0\u96fb\u548c\u4e2d\u6cb9\u7684\u300c\u6aa2\u8a0e\u6539\u5584\u5831\u544a\u300d\uff0c\u91dd\u5c0d\u4e0d\u5408\u7406\u4e4b\u8655\u5fb9\u5e95\u6aa2\u8a0e\u6539\u9769\uff0c\u78ba\u4fdd\u6cb9\u96fb\u6f32\u50f9\u7684\u516c\u5e73\u8207\u6b63\u7fa9\uff0c\u4ee5\u7b26\u5408\u4eba\u6c11\u671f\u5f85\u3002
p1452
sVid
p1453
V118250504903757_326930314035774
p1454
sVcomments
p1455
(dp1456
Vcount
p1457
I27821
ssag3
ag268
a(dp1458
Vfrom
p1459
(dp1460
Vcategory
p1461
VPolitician
p1462
sVid
p1463
V118250504903757
p1464
sVname
p1465
V\u99ac\u82f1\u4e5d\u7e3d\u7d71
p1466
ssVcomments
p1467
(dp1468
Vcount
p1469
I17093
ssVupdated_time
p1470
V2011-07-12T23:15:11+0000
p1471
sVlikes
p1472
(dp1473
Vcount
p1474
I56557
ssVmessage
p1475
V\u4eca\u5929\u662f\u6211\u7684\u751f\u65e5\uff0c\u6bcf\u5e74\u751f\u65e5\u6211\u90fd\u4e0d\u7279\u5225\u8fa6\u6176\u751f\u6d3b\u52d5\uff0c\u5927\u591a\u662f\u56de\u5bb6\u966a\u5abd\u5abd\u5403\u98ef\u3002\u56e0\u70ba\uff0c\u6211\u89ba\u5f97\u6bcf\u4e00\u500b\u4eba\u51fa\u751f\u7684\u6642\u5019\uff0c\u90fd\u662f\u5abd\u5abd\u6700\u8f9b\u82e6\u7684\u6642\u5019\u3002\u53e4\u4eba\u8aaa\u81ea\u5df1\u7684\u751f\u65e5\u662f\u300c\u6bcd\u96e3\u65e5\u300d\uff0c\u5c31\u662f\u9019\u500b\u610f\u601d\u3002\u6240\u4ee5\u5728\u751f\u65e5\u6642\uff0c\u8981\u7279\u5225\u8b1d\u8b1d\u5abd\u5abd\uff0c\u591a\u966a\u966a\u5abd\u5abd\u3002\u6211\u9084\u8a18\u5f97\uff0c\u6211\u5c0f\u6642\u5019\uff0c\u5728\u90a3\u500b\u7269\u529b\u7dad\u8271\u7684\u6c11\u570b\u56db\u5341\u5e74\u4ee3\uff0c\u751f\u65e5\u7684\u6642\u5019\uff0c\u5abd\u5abd\u90fd\u6703\u716e\u9eb5\u7d66\u6211\u5011\u5b69\u5b50\u5403\uff0c\u518d\u6dfb\u4e0a\u4e00\u500b\u8377\u5305\u86cb\uff0c\u90a3\u5c31\u662f\u90a3\u500b\u5e74\u4ee3\u6700\u8c6a\u83ef\u7684\u5927\u9910\u4e86\u3002\u73fe\u5728\u7684\u5b69\u5b50\u5f88\u96e3\u60f3\u50cf\u5427\uff01\u000a\u81f3\u65bc\u751f\u65e5\u9858\u671b\uff0c\u6211\u6bcf\u5e74\u8a31\u7684\u9858\u90fd\u5dee\u4e0d\u591a\uff0c\u5c31\u662f\u5e0c\u671b\u570b\u6cf0\u6c11\u5b89\uff0c\u5e0c\u671b\u53f0\u7063\u6108\u4f86\u6108\u7f8e\u597d\uff0c\u5e0c\u671b\u5728\u9019\u584a\u571f\u5730\u4e0a\u7684\u4eba\u5011\u90fd\u6108\u4f86\u6108\u5e78\u798f\u3002\u54e6\uff0c\u5c0d\u4e86\uff0c\u6628\u665a\u770b\u5230\u6211\u7684\u81c9\u66f8\u7c89\u7d72\u5df2\u783470\u842c\uff0c\u5f88\u9ad8\u8208\u5728\u751f\u65e5\u524d\u5915\u8d85\u8d8a\u4e00\u500b\u65b0\u7684\u6574\u6578\u95dc\u5361\uff0c\u8b1d\u8b1d\u5927\u5bb6\u7d66\u6211\u9019\u9ebc\u68d2\u7684\u79ae\u7269\u3002\u000a\u6700\u5f8c\uff0c\u5927\u5bb6\u53c8\u662f\u5982\u4f55\u904e\u751f\u65e5\u7684\u5462\uff1f\u751f\u65e5\u6642\u90fd\u8a31\u4e0b\u4ec0\u9ebc\u6a23\u7684\u9858\u671b\u5462\uff1f\u5e0c\u671b\u5927\u5bb6\u53ef\u4ee5\u7559\u8a00\u4f86\u5206\u4eab\u4e00\u4e0b\u3002
p1476
sVid
p1477
V118250504903757_179184702143670
p1478
sg12
(lp1479
(dp1480
Vfrom
p1481
(dp1482
Vname
p1483
VWu Anderson
p1484
sVid
p1485
V100001601451422
p1486
ssVmessage
p1487
V\u751f\u65e5\u5feb\u6a02!!!
p1488
sVid
p1489
V118250504903757_179184702143670_1914658
p1490
sa(dp1491
Vfrom
p1492
(dp1493
Vname
p1494
VLeo Poon
p1495
sVid
p1496
V515684779
p1497
ssVmessage
p1498
V\u751f\u65e5\u5feb\u6a02 \u7e3d\u7d71 :)
p1499
sVid
p1500
V118250504903757_179184702143670_1914661
p1501
sa(dp1502
Vfrom
p1503
(dp1504
Vname
p1505
V\u90ed\u4f73\u96ef
p1506
sVid
p1507
V100000019219002
p1508
ssVmessage
p1509
V\u751f\u65e5\u5feb\u6a02
p1510
sVid
p1511
V118250504903757_179184702143670_1914660
p1512
sa(dp1513
Vfrom
p1514
(dp1515
Vname
p1516
V\u5510\u4f2f\u864e
p1517
sVid
p1518
V100000169364143
p1519
ssVmessage
p1520
V\u751f\u65e5\u5feb\u6a02
p1521
sVid
p1522
V118250504903757_179184702143670_1914663
p1523
sa(dp1524
Vfrom
p1525
(dp1526
Vname
p1527
VShalin Lin
p1528
sVid
p1529
V100000401413412
p1530
ssVmessage
p1531
V\u751f\u65e5\u5feb\u6a02 =]
p1532
sVid
p1533
V118250504903757_179184702143670_1914664
p1534
sa(dp1535
Vfrom
p1536
(dp1537
Vname
p1538
V\u91d1\u5c71\u6a58\u5b50
p1539
sVid
p1540
V100000282735644
p1541
ssVmessage
p1542
V\u751f\u65e5\u5feb\u6a02
p1543
sVid
p1544
V118250504903757_179184702143670_1914665
p1545
sa(dp1546
Vfrom
p1547
(dp1548
Vname
p1549
VSkyhigher Wang
p1550
sVid
p1551
V717361528
p1552
ssVmessage
p1553
V\u751f\u65e5\u5feb\u6a02 !
p1554
sVid
p1555
V118250504903757_179184702143670_1914667
p1556
sa(dp1557
Vfrom
p1558
(dp1559
Vname
p1560
V\u6797\u80b2\u5148
p1561
sVid
p1562
V1443180998
p1563
ssVmessage
p1564
V\u7e3d\u7d71,\u751f\u65e5\u5feb\u6a02
p1565
sVid
p1566
V118250504903757_179184702143670_1914666
p1567
sa(dp1568
Vfrom
p1569
(dp1570
Vname
p1571
V\u6731\u570b\u7433
p1572
sVid
p1573
V100000134931483
p1574
ssVmessage
p1575
V\u751f\u65e5\u5feb\u6a02~
p1576
sVid
p1577
V118250504903757_179184702143670_1914668
p1578
sa(dp1579
Vfrom
p1580
(dp1581
Vname
p1582
V\u9078\u64c7
p1583
sVid
p1584
V100000546545381
p1585
ssVmessage
p1586
V\u7e3d\u7d71\u751f\u65e5\u5feb\u6a02
p1587
sVid
p1588
V118250504903757_179184702143670_1914670
p1589
sasag400
a(dp1590
Vfrom
p1591
(dp1592
Vcategory
p1593
VPolitician
p1594
sVid
p1595
V118250504903757
p1596
sVname
p1597
V\u99ac\u82f1\u4e5d\u7e3d\u7d71
p1598
ssVcomments
p1599
(dp1600
Vcount
p1601
I14312
ssVupdated_time
p1602
V2012-04-18T16:10:17+0000
p1603
sVlikes
p1604
(dp1605
Vcount
p1606
I11184
ssVmessage
p1607
V\u300e\u9019\u6b21\u6cb9\u96fb\u6f32\u50f9\u662f\u975e\u5e38\u56f0\u96e3\u3001\u4e0d\u5f97\u5df2\u3001\u75db\u82e6\u4e14\u7d55\u5c0d\u4e0d\u8a0e\u597d\u7684\u653f\u7b56\uff0c\u4f46\u73fe\u5728\u82e5\u4e0d\u505a\uff0c\u6301\u7e8c\u4e0b\u53bb\u5c07\u7d2f\u7a4d\u66f4\u591a\u7684\u8667\u640d\uff0c\u672a\u4f86\u8abf\u6574\u7684\u5e45\u5ea6\u4e00\u5b9a\u6703\u66f4\u5927\uff1b\u800c\u96a8\u8457\u5168\u4e16\u754c\u80fd\u6e90\u50f9\u683c\u4e0a\u6f32\uff0c\u653f\u5e9c\u4e00\u65b9\u9762\u5c07\u900f\u904e\u7bc0\u80fd\u7684\u65b9\u5f0f\u6e1b\u5c11\u80fd\u6e90\u7684\u4f7f\u7528\uff0c\u53e6\u4e00\u65b9\u9762\u5c07\u7a4d\u6975\u767c\u5c55\u66ff\u4ee3\u80fd\u6e90\uff0c\u5118\u53ef\u80fd\u5730\u6e1b\u5c11\u885d\u64ca\u3002\u5e0c\u671b\u570b\u4eba\u5171\u9ad4\u6642\u8271\uff0c\u5ea6\u904e\u96e3\u95dc\u3002\u300f
p1608
sVid
p1609
V118250504903757_127620160695266
p1610
sg12
(lp1611
(dp1612
Vfrom
p1613
(dp1614
Vcategory
p1615
VTeacher
p1616
sVid
p1617
V200379383408300
p1618
sVname
p1619
V\u7518\u5be7
p1620
ssVmessage
p1621
V\u7b97\u4e86\u5427
p1622
sVid
p1623
V118250504903757_127620160695266_99196
p1624
sa(dp1625
Vfrom
p1626
(dp1627
Vname
p1628
V\u8b1d\u5bb6\u52db
p1629
sVid
p1630
V100000483108463
p1631
ssVmessage
p1632
V\u3115\u02c7
p1633
sVid
p1634
V118250504903757_127620160695266_99199
p1635
sa(dp1636
Vfrom
p1637
(dp1638
Vname
p1639
V\u738b\u963f\u74dc
p1640
sVid
p1641
V1125257532
p1642
ssVmessage
p1643
V\u6f32\u7d66\u53f0\u96fbA\u55ce?????????????
p1644
sVid
p1645
V118250504903757_127620160695266_99202
p1646
sa(dp1647
Vfrom
p1648
(dp1649
Vname
p1650
V\u5f35\u6b3d\u69ae
p1651
sVid
p1652
V100001251855694
p1653
ssVmessage
p1654
V\u5403\u5c4e
p1655
sVid
p1656
V118250504903757_127620160695266_99203
p1657
sa(dp1658
Vfrom
p1659
(dp1660
Vname
p1661
VLouis Liao
p1662
sVid
p1663
V100001560016986
p1664
ssVmessage
p1665
V\u9177\u5594
p1666
sVid
p1667
V118250504903757_127620160695266_99204
p1668
sa(dp1669
Vfrom
p1670
(dp1671
Vname
p1672
V\u8449\u879e\u87fb
p1673
sVid
p1674
V1414872510
p1675
ssVmessage
p1676
V\u6f32\u6f32\u6f32  \u53ea\u6709\u85aa\u6c34\u6c92\u6f32= =?
p1677
sVid
p1678
V118250504903757_127620160695266_99205
p1679
sa(dp1680
Vfrom
p1681
(dp1682
Vname
p1683
V\u8521\u85dd\u8431
p1684
sVid
p1685
V1602716942
p1686
ssVmessage
p1687
V\u90a3\u85aa\u6c34\u53ef\u4ee5\u6f32\u4e00\u4e0b\u3107???
p1688
sVid
p1689
V118250504903757_127620160695266_99208
p1690
sa(dp1691
Vfrom
p1692
(dp1693
Vname
p1694
V\u6b50\u9ad8\u6587
p1695
sVid
p1696
V100002765764810
p1697
ssVmessage
p1698
V\u9a19\u5b8c\u9078\u7968\u4e4b\u5f8c\u7a81\u7136\u53c8\u8b8a\u8eab\uff0c\u597d\u6a23\u7684\u5340\u9577
p1699
sVid
p1700
V118250504903757_127620160695266_99207
p1701
sa(dp1702
Vfrom
p1703
(dp1704
Vname
p1705
V\u5c0f\u6bd4
p1706
sVid
p1707
V1557616051
p1708
ssVmessage
p1709
V\u9996\u5148\u5148\u606d\u559c\u99ac\u82f1\u4e5d\u5148\u751f\u60a8\u000a\u6210\u70ba\u4e2d\u83ef\u6c11\u570b\u7b2c\u4e00\u4f4d\u6c11\u9078\u7e3d\u7d71\u57f7\u653f\u56db\u5e74\u000a\u652f\u6301\u5ea6\u5269\u4e0b\u4e0d\u523018%\u7684\u7e3d\u7d71\u3001\u6b77\u53f2\u5e6b\u60a8\u5b9a\u4f4d\u4e86\u3002\u000a================================\u000a\u653f\u5e9c\u5c1a\u672a\u6aa2\u8a0e\u570b\u71df\u4e8b\u696d\u7684\u71df\u696d\u6536\u652f\u3001\u4e26\u6aa2\u8a0e\u8667\u640d\u539f\u56e0\u3001\u71df\u904b\u6536\u652f\u6524\u5728\u967d\u5149\u4e0b\u4e4b\u524d\uff0c\u8cbf\u7136\u7d66\u4e86\u4eba\u6c11\u4e00\u53e5\u8a71 \u000a[\u4e0d\u6f32\u6703\u5012 ]\uff1b\u4e00\u6f32\u842c\u7269\u7686\u6f32\u3001\u99ac\u5148\u751f\u60a8\u8a8d\u70ba\u9019\u6a23\u5408\u7406\u55ce\uff1f\u000a\u000a\u3008\u5982\u540c\u4eca\u5929\u6295\u8cc7\u4e00\u9593\u516c\u53f8\u4f01\u696d\u4e26\u6210\u70ba\u80a1\u6771\u3001\u80a1\u6771\u958b\u6703\u6642\u544a\u8a34\u60a8\uff1a\u516c\u53f8\u4f01\u696d\u8667\u9322\u3001\u8acb\u518d\u62ff\u51fa\u9322\u4f86\u4e0d\u7136\u6703\u5012\u9589\u3001\u554f\u8667\u640d\u539f\u56e0\u3001\u8aaa\u4e0d\u51fa\u4f86\u3001\u8a66\u554f\uff1b\u000a\u8a72\u4e0d\u8a72\u5148\u95dc\u5207\u8667\u9322\u7684\u539f\u56e0\uff1b\u5728\u8003\u616e\u662f\u5426\u518d\u6ce8\u5165\u8cc7\u91d1\u55ce\uff1f\u3009\u000a\u000a\uff0a\u6c34\u3001\u96fb\u3001\u6cb9\u50f9\u683c\u5408\u7406\u5316\u653f\u7b56\u51fa\u767c\u9ede\u662f\u4eba\u6c11\u4e4b\u798f\u3001\u000a\u5f71\u7247\u4e2d\u60a8\u627f\u8afe\u6aa2\u8a0e\u570b\u71df\u4e8b\u696d\u7684\u71df\u904b\u7e3e\u6548\u3001\u6210\u672c\u640d\u76ca\u000a\u6d6a\u8cbb\u6d6e\u5831\u3001\u652f\u51fa\u9ed1\u6d1e\u3001\u516d\u6708\u5e95\u624d\u6703\u7d66\u5168\u6c11\u4ea4\u4ee3...\u000a\u000a\u3010\u5c1a\u672a\u4ea4\u4ee3\u524d\u8cbf\u7136\u5f9e\u4eba\u6c11\u8eab\u4e0a\u6436\u9322\u53bb\u88dc\u8667\u640d\u3011\u000a\u000a\u9019\u5c31\u662f \u6c34\u3001\u96fb\u3001\u6cb9\u3001\u50f9\u683c\u5408\u7406\u5316\u7684\u7b2c\u4e00\u7a0b\u5e8f\u55ce\uff1f\u000a\u000a\u6d41\u6c13\u6a23\u7684\u653f\u5e9c\u3001\u8981\u4eba\u6c11\u5982\u4f55\u5fc3\u670d\u8ddf\u76f8\u4fe1\u60a8\u5462!!\u000a\u000a\u4eba\u6c11\u4e4b\u6240\u4ee5\u53cd\u5f48\u5c31\u5728\u300e\u5408\u7406\u5316\u300f\u7684\u5b9a\u7fa9\uff01\u000a\u7e3d\u7d71\u60a8\u5236\u5b9a\u597d\u7684\u914d\u5957\u63aa\u65bd\u4eba\u6c11\u771f\u7684\u6c92\u6709\u611f\u53d7\u5230 \uff01
p1710
sVid
p1711
V118250504903757_127620160695266_99206
p1712
sa(dp1713
Vfrom
p1714
(dp1715
Vname
p1716
V\u9673\u6021\u7d14
p1717
sVid
p1718
V100000169805041
p1719
ssVmessage
p1720
V\u7e3d\u7d71\u52a0\u6cb9\uff1a\uff09
p1721
sVid
p1722
V118250504903757_127620160695266_99209
p1723
sasa(dp1724
Vupdated_time
p1725
V2011-01-28T10:00:57+0000
p1726
sVfrom
p1727
(dp1728
Vcategory
p1729
VPolitician
p1730
sVid
p1731
V118250504903757
p1732
sVname
p1733
V\u99ac\u82f1\u4e5d\u7e3d\u7d71
p1734
ssVcomments
p1735
(dp1736
Vcount
p1737
I13971
ssVlikes
p1738
(dp1739
Vcount
p1740
I53852
ssVmessage
p1741
V\u5fd9\u788c\u4e86\u4e00\u5929\u4e4b\u5f8c\uff0c\u770b\u5230\u9019\u9ebc\u591a\u597d\u670b\u53cb\u52a0\u5165\uff0c\u4f86\u5e6b\u6211\u6253\u6c23\u9084\u6709\u5efa\u8b70\uff0c\u6211\u975e\u5e38\u611f\u52d5\uff0c\u66f4\u73cd\u60dc\u9019\u6a23\u8ddf\u5927\u5bb6\u4e92\u52d5\u7684\u6a5f\u6703\uff01\u8b1d\u8b1d\u5927\u5bb6\uff01
p1742
sVid
p1743
V118250504903757_189797391048891
p1744
sg12
(lp1745
(dp1746
Vfrom
p1747
(dp1748
Vname
p1749
V\u738b\u5f65\u8fea
p1750
sVid
p1751
V100001973267449
p1752
ssVmessage
p1753
V\u8f9b\u82e6\u4e86\uff01\uff01
p1754
sVid
p1755
V118250504903757_189797391048891_2519343
p1756
sa(dp1757
Vfrom
p1758
(dp1759
Vname
p1760
VRachel Dai
p1761
sVid
p1762
V1477555954
p1763
ssVmessage
p1764
V\u99ac\u7e3d\u7d71\u4f60\u597d\u53ef\u611b!!!!!!
p1765
sVid
p1766
V118250504903757_189797391048891_2519347
p1767
sa(dp1768
Vfrom
p1769
(dp1770
Vname
p1771
V\u90ed\u4fca\u5f65
p1772
sVid
p1773
V1813012908
p1774
ssVmessage
p1775
V\u611f\u89ba\u662f\u5e55\u50da\u6253\u7684...
p1776
sVid
p1777
V118250504903757_189797391048891_2519348
p1778
sa(dp1779
Vfrom
p1780
(dp1781
Vname
p1782
V\u9673\u8389\u5a1c
p1783
sVid
p1784
V100000189465136
p1785
ssVmessage
p1786
V\u52a0\u6cb9..
p1787
sVid
p1788
V118250504903757_189797391048891_2519349
p1789
sa(dp1790
Vfrom
p1791
(dp1792
Vname
p1793
VAshley Cheng
p1794
sVid
p1795
V100000028839317
p1796
ssVmessage
p1797
V<3<3<3<3<3
p1798
sVid
p1799
V118250504903757_189797391048891_2519351
p1800
sa(dp1801
Vfrom
p1802
(dp1803
Vname
p1804
V\u694a\u5708 \u5708
p1805
sVid
p1806
V100000123392909
p1807
ssVmessage
p1808
V\u52a0\u6cb9!!
p1809
sVid
p1810
V118250504903757_189797391048891_2519350
p1811
sa(dp1812
Vfrom
p1813
(dp1814
Vname
p1815
V\u9673\u744b\u5a1f
p1816
sVid
p1817
V100000443894168
p1818
ssVmessage
p1819
V\u52a0\u6cb9\u52a0\u6cb9~!!!
p1820
sVid
p1821
V118250504903757_189797391048891_2519352
p1822
sa(dp1823
Vfrom
p1824
(dp1825
Vname
p1826
V\u9678\u677e\u666f
p1827
sVid
p1828
V100001694679320
p1829
ssVmessage
p1830
V\u8f9b\u82e6\u4e86\uff01
p1831
sVid
p1832
V118250504903757_189797391048891_2519353
p1833
sa(dp1834
Vfrom
p1835
(dp1836
Vname
p1837
VEd Chien
p1838
sVid
p1839
V100001047555529
p1840
ssVmessage
p1841
VPush=]
p1842
sVid
p1843
V118250504903757_189797391048891_2519354
p1844
sa(dp1845
Vfrom
p1846
(dp1847
Vname
p1848
VGogi Hsu
p1849
sVid
p1850
V1455457357
p1851
ssVmessage
p1852
V\u99ac\u7e3d\u7d71\u597d\u5e25 \u5e25\u7ffb\u4e86~\u8a93\u6b7b\u8ddf\u96a8
p1853
sVid
p1854
V118250504903757_189797391048891_2519355
p1855
sasa(dp1856
Vfrom
p1857
(dp1858
Vcategory
p1859
VPolitician
p1860
sVid
p1861
V118250504903757
p1862
sVname
p1863
V\u99ac\u82f1\u4e5d\u7e3d\u7d71
p1864
ssg12
(lp1865
(dp1866
Vfrom
p1867
(dp1868
Vname
p1869
VChao Chao
p1870
sVid
p1871
V1583543781
p1872
ssVmessage
p1873
V\u5594
p1874
sVid
p1875
V118250504903757_329535747108564_3778519
p1876
sa(dp1877
Vfrom
p1878
(dp1879
Vname
p1880
V\u90ed\u5f65\u5ef7
p1881
sVid
p1882
V100000375725975
p1883
ssVmessage
p1884
V:))
p1885
sVid
p1886
V118250504903757_329535747108564_3778521
p1887
sa(dp1888
Vfrom
p1889
(dp1890
Vname
p1891
VCarl Chien
p1892
sVid
p1893
V1460924972
p1894
ssVmessage
p1895
V\u5616
p1896
sVid
p1897
V118250504903757_329535747108564_3778522
p1898
sa(dp1899
Vfrom
p1900
(dp1901
Vname
p1902
V\u738b\u8336\u541b
p1903
sVid
p1904
V1230525409
p1905
ssVmessage
p1906
V\u5c11\u5728\u54ea\u908a
p1907
sVid
p1908
V118250504903757_329535747108564_3778524
p1909
sa(dp1910
Vfrom
p1911
(dp1912
Vname
p1913
VShingMing Tu
p1914
sVid
p1915
V100002196096132
p1916
ssVmessage
p1917
V\u54c0
p1918
sVid
p1919
V118250504903757_329535747108564_3778526
p1920
sa(dp1921
Vfrom
p1922
(dp1923
Vname
p1924
V\u66fe\u6e58\u8018
p1925
sVid
p1926
V100000710685615
p1927
ssVmessage
p1928
V\uff33\uff2f\u99ac\u5148\u751f\u4f60\u8981\u8aaa\u751a\u9ebc
p1929
sVid
p1930
V118250504903757_329535747108564_3778525
p1931
sa(dp1932
Vfrom
p1933
(dp1934
Vname
p1935
V\u9673\u5178\u4f4d
p1936
sVid
p1937
V100000266311512
p1938
ssVmessage
p1939
V?
p1940
sVid
p1941
V118250504903757_329535747108564_3778527
p1942
sa(dp1943
Vfrom
p1944
(dp1945
Vname
p1946
VGlen Sun
p1947
sVid
p1948
V100000204761526
p1949
ssVmessage
p1950
V\u721b\u900f\u4e86
p1951
sVid
p1952
V118250504903757_329535747108564_3778529
p1953
sa(dp1954
Vfrom
p1955
(dp1956
Vname
p1957
V\u6797\u55ac\u55ac
p1958
sVid
p1959
V1118755256
p1960
ssVmessage
p1961
V\u5594
p1962
sVid
p1963
V118250504903757_329535747108564_3778531
p1964
sa(dp1965
Vfrom
p1966
(dp1967
Vname
p1968
V\u5433\u6bdb\u6bdb
p1969
sVid
p1970
V100000197241123
p1971
ssVmessage
p1972
V\u76e1\u6703\u6253\u5ee2\u8a71  \u7e3d\u7d71\u771f\u597d\u5e79
p1973
sVid
p1974
V118250504903757_329535747108564_3778530
p1975
sasVupdated_time
p1976
V2012-04-06T09:46:16+0000
p1977
sVlikes
p1978
(dp1979
Vcount
p1980
I22232
ssVmessage
p1981
V\u9577\u671f\u4ee5\u4f86\uff0c\u53f0\u7063\u7684\u4f4e\u6cb9\u50f9\u5efa\u7acb\u5728\u300c\u4ee5\u8ca7\u88dc\u5bcc\u300d\u7684\u57fa\u790e\u4e4b\u4e0a\u3002\u53f0\u7063\u4e26\u4e0d\u7522\u6cb9\uff0c\u6240\u6709\u7684\u77f3\u6cb9\u90fd\u9760\u9032\u53e3\uff0c\u6cb9\u50f9\u537b\u662f\u4e9e\u6d32\u6700\u4f4e\u7684\u3002\u70ba\u4e86\u907f\u514d\u8667\u640d\uff0c\u653f\u5e9c\u4ee5\u7a05\u91d1\u88dc\u8cbc\u6cb9\u50f9\uff0c\u7b49\u65bc\u662f\u300c\u8b93\u4e0d\u7528\u6cb9\u7684\u4eba\u88dc\u8cbc\u7528\u6cb9\u7684\uff1b\u8b93\u7528\u6cb9\u5c11\u7684\u4eba\u88dc\u8cbc\u7528\u6cb9\u591a\u7684\uff1b\u6cb9\u7528\u5f97\u8d8a\u591a\uff0c\u88dc\u8cbc\u8d8a\u591a\u300d\uff0c\u5c31\u662f\u300c\u4ee5\u7121\u88dc\u6709\u3001\u4ee5\u5c11\u88dc\u591a\u3001\u4ee5\u8ca7\u88dc\u5bcc\u3001\u9f13\u52f5\u591a\u7528\u300d\u3002\u5176\u5be6\u9019\u662f\u9055\u53cd\u516c\u5e73\u6b63\u7fa9\u539f\u5247\u7684\u3002\u6cb9\u50f9\u7684\u8abf\u6f32\uff0c\u5c31\u662f\u8981\u56de\u6b78\u5e02\u5834\u6a5f\u5236\uff0c\u8b93\u53f0\u7063\u793e\u6703\u66f4\u516c\u5e73\u3001\u66f4\u6b63\u7fa9\u3002 \u000a\u000a\u4e0a\u500b\u79ae\u62dc\u6211\u5e6b\u300c\u8352\u91ce\u4fdd\u8b77\u5354\u6703\u300d\u62cd\u651d\u516c\u76ca\u5ee3\u544a\uff0c\u63a8\u5ee3\u300cEarth Hour\u505c\u96fb\u4e00\u5c0f\u6642\u6d3b\u52d5\u300d\u3002\u7576\u5834\u5373\u6709\u74b0\u4fdd\u4eba\u58eb\u4e3b\u52d5\u5c0d\u6211\u8aaa\uff0c\u4ed6\u5011\u652f\u6301\u653f\u5e9c\u6cb9\u96fb\u6f32\u50f9\u7684\u6c7a\u7b56\u3002\u74b0\u4fdd\u4eba\u58eb\u9577\u671f\u70ba\u53f0\u7063\u751f\u614b\u74b0\u5883\u52aa\u529b\uff0c\u80fd\u5f97\u5230\u4ed6\u5011\u7684\u8a8d\u540c\uff0c\u8b93\u6211\u89ba\u5f97\u6b23\u6170\u3002\u7684\u78ba\uff0c\u8abf\u6574\u6cb9\u50f9\u7684\u53e6\u4e00\u500b\u91cd\u8981\u539f\u56e0\uff0c\u5c31\u662f\u5e0c\u671b\u85c9\u8457\u50f9\u683c\u6a5f\u5236\u8b93\u300c\u4eba\u5011\u7684\u884c\u70ba\u66f4\u74b0\u4fdd\u300d\uff0c\u85c9\u6a5f\u8abf\u6574\u751f\u6d3b\u65b9\u5f0f\u3001\u5efa\u7acb\u7bc0\u80fd\u6e1b\u78b3\u7684\u597d\u7fd2\u6163\uff0c\u4e5f\u8b93\u4f01\u696d\u754c\u6709\u8a98\u56e0\u767c\u5c55\u66ff\u4ee3\u80fd\u6e90\uff0c\u5426\u5247\u53cd\u6b63\u6709\u4fbf\u5b9c\u7684\u6cb9\u53ef\u7528\uff0c\u8ab0\u6703\u53bb\u7701\u6cb9\u5462\uff1f\u8ab0\u6703\u53bb\u6295\u8cc7\u66ff\u4ee3\u80fd\u6e90\u5462\uff1f\u3002\u000a \u000a\u9019\u6b21\u7684\u6cb9\u50f9\u5408\u7406\u5316\uff0c\u6f32\u50f9\u53ea\u662f\u8868\u8c61\uff0c\u4e8b\u5be6\u4e0a\u9084\u662f\u8b93\u53f0\u7063\u7522\u696d\u8f49\u578b\u3001\u74b0\u4fdd\u666e\u53ca\u7684\u65b0\u5951\u6a5f\u3002\u53f0\u7063\u5df2\u7d93\u8d70\u5230\u4e86\u300c\u5fc5\u9808\u6539\u8b8a\u300d\u7684\u95dc\u9375\u6642\u523b\uff0c\u9762\u5c0d\u81fa\u7063\u7684\u672a\u4f86\uff0c\u6211\u5011\u5fc5\u9808\u64d4\u8d77\u8cac\u4efb\uff0c\u5c0d\u81ea\u5df1\u8ca0\u8cac\uff0c\u4e5f\u5c0d\u672a\u4f86\u7684\u5b50\u5b6b\u8ca0\u8cac\u3002\u5e0c\u671b\u5927\u5bb6\u70ba\u4e86\u793e\u6703\u516c\u5e73\u3001\u70ba\u4e86\u74b0\u5883\u6b63\u7fa9\uff0c\u4e00\u8d77\u5171\u9ad4\u6642\u8271\u3001\u4e00\u8d77\u8abf\u6574\u751f\u6d3b\u7fd2\u6163\uff0c\u300c\u66ff\u53f0\u7063\u7684\u672a\u4f86\u505a\u5c0d\u7684\u4e8b\u300d\u3002
p1982
sVid
p1983
V118250504903757_329535747108564
p1984
sVcomments
p1985
(dp1986
Vcount
p1987
I12625
ssa(dp1988
Vlikes
p1989
(dp1990
Vcount
p1991
I12141
ssVfrom
p1992
(dp1993
Vcategory
p1994
VPolitician
p1995
sVid
p1996
V118250504903757
p1997
sVname
p1998
V\u99ac\u82f1\u4e5d\u7e3d\u7d71
p1999
ssVcomments
p2000
(dp2001
Vcount
p2002
I12223
ssVupdated_time
p2003
V2012-04-30T08:50:36+0000
p2004
sg12
(lp2005
(dp2006
Vfrom
p2007
(dp2008
Vname
p2009
V\u611b\u6234\u5152
p2010
sVid
p2011
V100002723421686
p2012
ssVmessage
p2013
V\u99ac\u82f1\u4e5d\u5148\u751f\u8acb\u554f\u9752\u5c11\u5e74\u5b89\u5fc3\u6210\u5bb6\u65b9\u6848\u4f55\u6642\u901a\u904e ?\u53bb\u5e744\u6708\u5c31\u958b\u59cb\u4e86 , \u90a3\u4eca\u5e74\u5462?\u8207\u5176\u5728\u90a3\u908a\u8aaa\u795e\u9ebc\u5927\u9678\u4f86\u7684\u4ea4\u63db\u751f ,\u8acb\u554f\u4f60 \u53f0\u7063\u505a\u597d\u4e86\u55ce ? \u4f60\u9023\u81ea\u5df1\u90fd\u6c92\u505a\u597d\u4e86 \u4f60\u9084\u7ba1\u5230\u4ea4\u63db\u5b78\u751f\u53bb.\u9019\u7a2e\u611f\u89ba\u5f88\u5dee ,\u96d6\u7136\u77e5\u9053\u4f60\u7576\u4e0a\u7e3d\u7d71\u4e86 \u4f46\u662f\u6709\u9ede\u4e0d\u6642\u4eba\u7159\u4e4b\u706b\u7684\u611f\u89ba !!
p2014
sVid
p2015
V118250504903757_358550974207041_1149790
p2016
sa(dp2017
Vfrom
p2018
(dp2019
Vname
p2020
V\u5f35\u66c9\u541b
p2021
sVid
p2022
V100000534403781
p2023
ssVmessage
p2024
V\u4f60\u5f97\u6b77\u53f2\u5b9a\u4f4d...\u5c31\u662f\u641e\u57ae\u53f0\u7063\u62c9..><
p2025
sVid
p2026
V118250504903757_358550974207041_1149805
p2027
sa(dp2028
Vfrom
p2029
(dp2030
Vname
p2031
V\u90b1\u570b\u748b
p2032
sVid
p2033
V100000307782323
p2034
ssVmessage
p2035
V\u99ac\u82f1\u4e5d \u82e5\u662f\u300e\u4eba\u300f\uff0c\u982d\u9802\u5929\u3001\u8173\u7acb\u5730\u3001\u5b88\u502b\u5e38\u3002\u000a\u82e5\u662f\u300e\u755c\u751f\u300f\u5247\u810a\u690e\u9aa8\u5411\u5929\u3001\u56db\u8173\u843d\u5730\u884c\u8d70\u5f31\u8089\u5f37\u98df\u3002\u000a\u6709\u4eba\u7684\u6a21\u6a23\u537b\u505a\u755c\u751f\u4e0d\u662f\u4eba\u7684\u884c\u70ba\u53eb\u300e\u80cc\u9aa8\u300f\uff0c\u901a\u5e38\u5fd8\u6069\u8ca0\u7fa9\u3001\u5403\u7897\u5167\u6d17\u7897\u5916\u3001\u80cc\u53db\u901a\u6575\u985e\u4f3c\u7684\uff0c\u6211\u5011\u7d71\u7a31\u300e\u80cc\u9aa8\u300f\u3002\u000a\u755c\u751f\u624d\u80cc\u9aa8\u3002
p2036
sVid
p2037
V118250504903757_358550974207041_1149823
p2038
sa(dp2039
Vfrom
p2040
(dp2041
Vname
p2042
V\u8f2f\u92d2\u90ed
p2043
sVid
p2044
V100003052308411
p2045
ssVmessage
p2046
V\u99ac\u82f1\u4e5d\u5728\u9019\u88e1!\u7f75\u4ed6\u7684\u90fd\u5728\u9019\u88e1!\u90a3\u500b\u81c9\u66f8\u7db2\u9801\u6211\u4e0d\u6703\u66f4\u65b0!\u9019\u88e1\u6211\u624d\u6703\u66f4\u65b0https://www.facebook.com/MaYingjeou/posts/359154697480002?notif_t=feed_comment_reply
p2047
sVid
p2048
V118250504903757_358550974207041_1149844
p2049
sa(dp2050
Vfrom
p2051
(dp2052
Vname
p2053
V\u8b1d\u660c\u7ff0
p2054
sVid
p2055
V100001422314459
p2056
ssVmessage
p2057
V\u4e2d\u751f\u4f86\u53f0\u7063\u5ff5\u66f8\u4e0d\u7528\u9322\u9084\u9818\u9322\u4e2d\u751f\u4f86\u53f0\u7063\u5ff5\u66f8\u4e0d\u7528\u9322\u9084\u9818\u9322\u4e2d\u751f\u4f86\u53f0\u7063\u5ff5\u66f8\u4e0d\u7528\u9322\u9084\u9818\u9322\u4e2d\u751f\u4f86\u53f0\u7063\u5ff5\u66f8\u4e0d\u7528\u9322\u9084\u9818\u9322\u4e2d\u751f\u4f86\u53f0\u7063\u5ff5\u66f8\u4e0d\u7528\u9322\u9084\u9818\u9322\u4e2d\u751f\u4f86\u53f0\u7063\u5ff5\u66f8\u4e0d\u7528\u9322\u9084\u9818\u9322\u4e2d\u751f\u4f86\u53f0\u7063\u5ff5\u66f8\u4e0d\u7528\u9322\u9084\u9818\u9322\u4e2d\u751f\u4f86\u53f0\u7063\u5ff5\u66f8\u4e0d\u7528\u9322\u9084\u9818\u9322\u4e2d\u751f\u4f86\u53f0\u7063\u5ff5\u66f8\u4e0d\u7528\u9322\u9084\u9818\u9322\u4e2d\u751f\u4f86\u53f0\u7063\u5ff5\u66f8\u4e0d\u7528\u9322\u9084\u9818\u9322\u4e2d\u751f\u4f86\u53f0\u7063\u5ff5\u66f8\u4e0d\u7528\u9322\u9084\u9818\u9322\u4e2d\u751f\u4f86\u53f0\u7063\u5ff5\u66f8\u4e0d\u7528\u9322\u9084\u9818\u9322\u4e2d\u751f\u4f86\u53f0\u7063\u5ff5\u66f8\u4e0d\u7528\u9322\u9084\u9818\u9322\u4e2d\u751f\u4f86\u53f0\u7063\u5ff5\u66f8\u4e0d\u7528\u9322\u9084\u9818\u9322\u4e2d\u751f\u4f86\u53f0\u7063\u5ff5\u66f8\u4e0d\u7528\u9322\u9084\u9818\u9322\u4e2d\u751f\u4f86\u53f0\u7063\u5ff5\u66f8\u4e0d\u7528\u9322\u9084\u9818\u9322\u4e2d\u751f\u4f86\u53f0\u7063\u5ff5\u66f8\u4e0d\u7528\u9322\u9084\u9818\u9322\u4e2d\u751f\u4f86\u53f0\u7063\u5ff5\u66f8\u4e0d\u7528\u9322\u9084\u9818\u9322\u4e2d\u751f\u4f86\u53f0\u7063\u5ff5\u66f8\u4e0d\u7528\u9322\u9084\u9818\u9322\u4e2d\u751f\u4f86\u53f0\u7063\u5ff5\u66f8\u4e0d\u7528\u9322\u9084\u9818\u9322\u4e2d\u751f\u4f86\u53f0\u7063\u5ff5\u66f8\u4e0d\u7528\u9322\u9084\u9818\u9322\u4e2d\u751f\u4f86\u53f0\u7063\u5ff5\u66f8\u4e0d\u7528\u9322\u9084\u9818\u9322\u4e2d\u751f\u4f86\u53f0\u7063\u5ff5\u66f8\u4e0d\u7528\u9322\u9084\u9818\u9322\u4e2d\u751f\u4f86\u53f0\u7063\u5ff5\u66f8\u4e0d\u7528\u9322\u9084\u9818\u9322\u4e2d\u751f\u4f86\u53f0\u7063\u5ff5\u66f8\u4e0d\u7528\u9322\u9084\u9818\u9322\u4e2d\u751f\u4f86\u53f0\u7063\u5ff5\u66f8\u4e0d\u7528\u9322\u9084\u9818\u9322\u4e2d\u751f\u4f86\u53f0\u7063\u5ff5\u66f8\u4e0d\u7528\u9322\u9084\u9818\u9322\u4e2d\u751f\u4f86\u53f0\u7063\u5ff5\u66f8\u4e0d\u7528\u9322\u9084\u9818\u9322\u4e2d\u751f\u4f86\u53f0\u7063\u5ff5\u66f8\u4e0d\u7528\u9322\u9084\u9818\u9322\u4e2d\u751f\u4f86\u53f0\u7063\u5ff5\u66f8\u4e0d\u7528\u9322\u9084\u9818\u9322\u4e2d\u751f\u4f86\u53f0\u7063\u5ff5\u66f8\u4e0d\u7528\u9322\u9084\u9818\u9322\u4e2d\u751f\u4f86\u53f0\u7063\u5ff5\u66f8\u4e0d\u7528\u9322\u9084\u9818\u9322\u4e2d\u751f\u4f86\u53f0\u7063\u5ff5\u66f8\u4e0d\u7528\u9322\u9084\u9818\u9322\u4e2d\u751f\u4f86\u53f0\u7063\u5ff5\u66f8\u4e0d\u7528\u9322\u9084\u9818\u9322\u4e2d\u751f\u4f86\u53f0\u7063\u5ff5\u66f8\u4e0d\u7528\u9322\u9084\u9818\u9322\u4e2d\u751f\u4f86\u53f0\u7063\u5ff5\u66f8\u4e0d\u7528\u9322\u9084\u9818\u9322\u4e2d\u751f\u4f86\u53f0\u7063\u5ff5\u66f8\u4e0d\u7528\u9322\u9084\u9818\u9322\u4e2d\u751f\u4f86\u53f0\u7063\u5ff5\u66f8\u4e0d\u7528\u9322\u9084\u9818\u9322\u4e2d\u751f\u4f86\u53f0\u7063\u5ff5\u66f8\u4e0d\u7528\u9322\u9084\u9818\u9322\u4e2d\u751f\u4f86\u53f0\u7063\u5ff5\u66f8\u4e0d\u7528\u9322\u9084\u9818\u9322\u4e2d\u751f\u4f86\u53f0\u7063\u5ff5\u66f8\u4e0d\u7528\u9322\u9084\u9818\u9322\u4e2d\u751f\u4f86\u53f0\u7063\u5ff5\u66f8\u4e0d\u7528\u9322\u9084\u9818\u9322\u4e2d\u751f\u4f86\u53f0\u7063\u5ff5\u66f8\u4e0d\u7528\u9322\u9084\u9818\u9322\u4e2d\u751f\u4f86\u53f0\u7063\u5ff5\u66f8\u4e0d\u7528\u9322\u9084\u9818\u9322\u4e2d\u751f\u4f86\u53f0\u7063\u5ff5\u66f8\u4e0d\u7528\u9322\u9084\u9818\u9322\u4e2d\u751f\u4f86\u53f0\u7063\u5ff5\u66f8\u4e0d\u7528\u9322\u9084\u9818\u9322\u4e2d\u751f\u4f86\u53f0\u7063\u5ff5\u66f8\u4e0d\u7528\u9322\u9084\u9818\u9322\u4e2d\u751f\u4f86\u53f0\u7063\u5ff5\u66f8\u4e0d\u7528\u9322\u9084\u9818\u9322\u4e2d\u751f\u4f86\u53f0\u7063\u5ff5\u66f8\u4e0d\u7528\u9322\u9084\u9818\u9322\u4e2d\u751f\u4f86\u53f0\u7063\u5ff5\u66f8\u4e0d\u7528\u9322\u9084\u9818\u9322\u4e2d\u751f\u4f86\u53f0\u7063\u5ff5\u66f8\u4e0d\u7528\u9322\u9084\u9818\u9322\u4e2d\u751f\u4f86\u53f0\u7063\u5ff5\u66f8\u4e0d\u7528\u9322\u9084\u9818\u9322\u4e2d\u751f\u4f86\u53f0\u7063\u5ff5\u66f8\u4e0d\u7528\u9322\u9084\u9818\u9322\u4e2d\u751f\u4f86\u53f0\u7063\u5ff5\u66f8\u4e0d\u7528\u9322\u9084\u9818\u9322\u4e2d\u751f\u4f86\u53f0\u7063\u5ff5\u66f8\u4e0d\u7528\u9322\u9084\u9818\u9322\u4e2d\u751f\u4f86\u53f0\u7063\u5ff5\u66f8\u4e0d\u7528\u9322\u9084\u9818\u9322
p2058
sVid
p2059
V118250504903757_358550974207041_1149849
p2060
sa(dp2061
Vfrom
p2062
(dp2063
Vname
p2064
V\u81f3\u5c0a\u5bf6
p2065
sVid
p2066
V100000536620743
p2067
ssVmessage
p2068
V\u5317\u6975\u718a\u958b\u59cb\u5403\u5c0f\u718a\u4e86 !!!! \u897f\u544a\u653f\u5e9c\u4e5f\u958b\u59cb\u5728\u6b98\u5bb3\u4eba\u6c11\u4e86 !!!
p2069
sVid
p2070
V118250504903757_358550974207041_1149911
p2071
sa(dp2072
Vfrom
p2073
(dp2074
Vname
p2075
V\u6797\u8cc0\u7433
p2076
sVid
p2077
V100001819818940
p2078
ssVmessage
p2079
V\u7b54\u6848\u51fa\u4f86\u4e86
p2080
sVid
p2081
V118250504903757_358550974207041_1149957
p2082
sa(dp2083
Vfrom
p2084
(dp2085
Vname
p2086
V\u7344\u708e
p2087
sVid
p2088
V100000250264146
p2089
ssVmessage
p2090
V\u516c\u55ae\u4f4d\u7bc0\u7701\u6211\u6703\u8aaa\u90a3\u662f\u7f8e\u5fb7\uff0c\u554f\u984c\u662f\u4e0d\u6210\u6bd4\u4f8b\u7684\u80a5\u8c93\u8207\u65cb\u8f49\u9580\uff0c\u52a0\u4e0a\u516c\u55ae\u4f4d\u8207\u6c11\u76f8\u5dee\u61f8\u6b8a\u7684\u85aa\u8cc7\u6240\u5f97\uff0c\u8981\u5c0f\u8001\u767e\u59d3\u7bc0\u7701\uff0c\u9019\u8ddf\u4f55\u4e0d\u98df\u8089\u9e8b\u7684\u5dee\u5225\u5728\u54ea\u88e1?\u628a\u70ad\u4e0a\u9396\u5f8c\uff0c\u8981\u8001\u767e\u59d3\u9023\u98ef\u90fd\u4e0d\u8981\u5403\u4f86\u7bc0\u7701?\u8981\u7701\u96fb\u88dc\u87a2\u805a\u5149\u4f86\u95b1\u8b80\u8996\u807d\u8b93\u8996\u529b\u4e0b\u964d?\u4f60\u6839\u672c\u641e\u4e0d\u61c2\u4eba\u5bb6\u8aaa\u4f60\u53eb\u5225\u4eba\u7bc0\u7701\u7684\u554f\u984c\u5728\u54ea\u88e1\u3002
p2091
sVid
p2092
V118250504903757_358550974207041_1149961
p2093
sa(dp2094
Vfrom
p2095
(dp2096
Vname
p2097
VShieh Cheng Wei
p2098
sVid
p2099
V100001175042858
p2100
ssVmessage
p2101
V\u5ead\u85dd\uff0c\u4e0d\u8981\u518d\u9019\u6a23\u6d17\u983b\u597d\u55ce\uff01\u59b3\u9019\u6a23\u6211\u600e\u9ebc\u7f75\u99ac\u82f1\u4e5d\u5462\uff1f
p2102
sVid
p2103
V118250504903757_358550974207041_1149973
p2104
sa(dp2105
Vfrom
p2106
(dp2107
Vname
p2108
VTom Lu
p2109
sVid
p2110
V100002401246199
p2111
ssVmessage
p2112
V\u6cb9\u96fb\u96d9\u6f32 \u4f01\u696d\u96e3\u7372\u5229  \u5c31\u53ea\u597d\u780d\u54e1\u5de5\u4e86 \u99ac\u82f1\u4e5d\u5fb7\u653f\u963f
p2113
sVid
p2114
V118250504903757_358550974207041_1149981
p2115
sasVmessage
p2116
V\u53f0\u7063\u7684\u5927\u5b78\u53bb\u5e74\u958b\u59cb\u62db\u6536\u5927\u9678\u300c\u5168\u4fee\u751f\u300d\uff08\u5538\u5b78\u4f4d\u7684\u5b78\u751f\uff09928\u4f4d\u5f8c\uff0c\u5169\u5cb8\u6559\u80b2\u4ea4\u6d41\u9032\u5165\u4e86\u65b0\u7684\u968e\u6bb5\u3002\u4e8b\u5be6\u4e0a\uff0c\u5927\u9678\u7684\u300c\u4ea4\u63db\u751f\u300d\uff08\u505c\u7559\u534a\u5e74\u5230\u4e00\u5e74\u7684\u4ea4\u63db\u5b78\u751f\uff09\u5f9e\u6c11\u570b93\u5e74\u5c31\u958b\u59cb\u4f86\u81fa\uff0c\u4f46\u4eba\u6578\u5f88\u5c11\uff0c\u53ea\u6709204\u4eba\u300297\u5e74\u6211\u5011\u4e0a\u4efb\u5f8c\uff0c\u4ea4\u63db\u751f\u4e0a\u5347\u52301321\u4eba\uff0c\u53bb\u5e74\u518d\u589e\u52a0\u523011,227\u4eba\uff0c\u6210\u95778\u500d\u534a\uff0c\u986f\u7136\u81fa\u7063\u5c0d\u5927\u9678\u5b78\u751f\u6709\u76f8\u7576\u7684\u5438\u5f15\u529b\u3002\u000a\u000a\u904e\u53bb\u4e00\u5e74\u534a\uff0c\u6211\u53c3\u52a0\u904e20\u591a\u5834\u672c\u5730\u5927\u5b78\u751f\u7684\u5ea7\u8ac7\u6703\uff0c\u5076\u723e\u6703\u78b0\u5230\u9678\u751f\u53c3\u52a0\u4e26\u767c\u8a00\uff0c\u4f46\u7e3d\u89ba\u5f97\u5c0d\u4ed6\u5011\u9084\u662f\u4e0d\u5920\u4e86\u89e3\u3002\u4e0a\u9031\u516d\u6211\u7279\u5730\u5230\u5357\u53f0\u79d1\u6280\u5927\u5b78\uff0c\u53c3\u52a0\u4e00\u5834\u5169\u5cb8\u9752\u5e74\u8ad6\u58c7\u3002 \u000a\u000a\u9678\u751f\u63d0\u51fa\u7684\u554f\u984c\u4e94\u82b1\u516b\u9580\uff0c\u6709\u4e00\u4f4d\u5973\u751f\u4ee5\u6cb9\u96fb\u6f32\u50f9\u70ba\u4f8b\uff0c\u5efa\u8b70\u5b78\u751f\u6c92\u7528\u96fb\u8166\u6642\u4e0d\u61c9\u8a72\u958b\u6a5f\u3002\u53e6\u4e00\u4f4d\u5973\u751f\u5efa\u8b70\u9032\u4e00\u6b65\u958b\u653e\u9678\u751f\u4f86\u81fa\u5c31\u5b78\u3002\u66f4\u6709\u4e00\u4f4d\u7537\u751f\u5c16\u92b3\u7684\u554f\uff1a\u300c\u60a8\u5e38\u8981\u5927\u9678\u5b78\u751f\u4f86\u81fa\u7063\u770b\u770b\uff0c\u4ed6\u5011\u4f86\u4e86\u4e4b\u5f8c\uff0c\u767c\u73fe\u60a8\u5e38\u88ab\u5a92\u9ad4\u6279\u8a55\uff0c\u60a8\u6709\u4ec0\u9ebc\u611f\u89ba\uff1f\u300d\u6211\u5411\u4ed6\u5766\u627f\uff1a\u6709\u6642\u5019\u7576\u7136\u6703\u4e0d\u8212\u670d\uff0c\u4f46\u53f0\u7063\u662f\u6c11\u4e3b\u793e\u6703\uff0c\u4eba\u4eba\u90fd\u6709\u8a00\u8ad6\u81ea\u7531\uff0c\u6bcf\u5929\u90fd\u6709\u4eba\u6279\u8a55\u653f\u6cbb\u4eba\u7269\uff0c\u9019\u6709\u52a9\u65bc\u653f\u6cbb\u4eba\u7269\u770b\u5230\u81ea\u5df1\u7684\u7f3a\u9ede\uff0c\u53ef\u4ee5\u5c11\u72af\u932f\u8aa4\u3002\u000a\u000a\u7576\u6211\u53cd\u554f\uff1a\u300c\u5927\u9678\u7684\u653f\u6cbb\u4eba\u7269\u53ef\u4ee5\u88ab\u6279\u8a55\u55ce\uff1f\u300d\u000a\u4ed6\u8aaa\uff1a\u300c\u53ef\u4ee5\uff0c\u4f46\u5c64\u6b21\u4e0d\u80fd\u592a\u9ad8\u300d\u3002\u000a\u6211\u554f\uff1a\u300c\u591a\u9ad8\u7b97\u592a\u9ad8\uff1f\u300d\u4ed6\u4e00\u6642\u8a9e\u585e\uff0c\u5168\u5834\u5927\u7b11\u3002\u000a\u6211\u53c8\u554f\uff1a\u300c\u53ef\u4ee5\u6279\u8a55\u5230\u4ec0\u9ebc\u7a0b\u5ea6\uff1f\u300d\u9019\u4f4d\u540c\u5b78\u5999\u7b54\uff1a\u300c\u7576\u4ed6\u53d7\u5230\u6279\u8a55\u6642\uff0c\u5c31\u662f\u4ed6\u88ab\u8655\u5206\u7684\u6642\u5019\u4e86\u300d\uff0c\u5168\u5834\u7206\u7b11\uff0c\u6211\u81ea\u5df1\u4e5f\u7b11\u5f4e\u4e86\u8170\u3002\u000a\u000a\u9084\u6709\u4e00\u4f4d\u7537\u751f\u554f\u6211\uff1a\u5927\u9678\u5982\u679c\u958b\u653e\u7d44\u9ee8\uff0c\u5c0d\u81fa\u7063\u6703\u6709\u4ec0\u9ebc\u5f71\u97ff\uff1f\u6211\u8aaa\u5982\u679c\u5927\u9678\u6c11\u4e3b\u5316\uff0c\u5169\u5cb8\u7684\u8ddd\u96e2\u4e00\u5b9a\u6703\u5927\u5e45\u7e2e\u77ed\uff0c\u56e0\u70ba\u6c11\u4e3b\u662f\u6211\u5011\u7684\u6838\u5fc3\u50f9\u503c\u3002\u5927\u9678\u7684\u6c11\u4e3b\u5316\uff0c\u4e5f\u4e00\u5b9a\u80fd\u4f7f\u5169\u5cb8\u7684\u548c\u5e73\u66f4\u9577\u4e45\u3002\u000a\u000a\u8f15\u9b06\u7684\u554f\u7b54\u537b\u9ede\u51fa\u5927\u9678\u7684\u5be6\u6cc1\u8207\u5169\u5cb8\u7684\u5dee\u7570\u3002\u6211\u4e5f\u5e0c\u671b\u591a\u8fa6\u4e00\u4e9b\u9019\u6a23\u7684\u5c0d\u8ac7\uff0c\u8b93\u6bcf\u4e00\u4f4d\u9678\u751f\u66f4\u52a0\u4e86\u89e3\u6c11\u4e3b\u7684\u53ef\u8cb4\u3002\u000a\u000a\u73fe\u5834\u7684\u53f0\u751f\u4e5f\u63d0\u5230\uff0c\u5118\u7ba1\u76ee\u524d\u5169\u5cb8\u5b78\u751f\u5728\u76f8\u8655\u4e0a\u9084\u9700\u8981\u78e8\u5408\uff0c\u4f46\u672a\u4f86\u4e00\u5b9a\u6703\u6f38\u5165\u4f73\u5883\uff0c\u9019\u7a2e\u9858\u610f\u655e\u958b\u5fc3\u80f8\u7684\u614b\u5ea6\uff0c\u4e5f\u8b93\u6211\u611f\u5230\u632f\u596e\u3002\u000a\u000a\u6211\u7576\u521d\u529b\u4e3b\u958b\u653e\u9678\u751f\u4f86\u53f0\uff0c\u9664\u4e86\u8b93\u5169\u5cb8\u5e74\u8f15\u4eba\u4ea4\u670b\u53cb\u5916\uff0c\u4e5f\u5e0c\u671b\u80fd\u63d0\u6607\u53f0\u7063\u5b78\u751f\u7684\u7af6\u722d\u529b\uff0c\u66f4\u76fc\u671b\u5169\u5cb8\u5e74\u8f15\u4eba\u9032\u4e00\u6b65\u4e86\u89e3\u5c0d\u65b9\uff0c\u5b78\u6703\u5f7c\u6b64\u5c0a\u91cd\u3001\u76f8\u4e92\u5305\u5bb9\uff0c\u8b93\u5169\u5cb8\u548c\u5e73\u767c\u5c55\u9577\u9577\u4e45\u4e45\u3002
p2117
sVid
p2118
V118250504903757_358550974207041
p2119
sa(dp2120
Vfrom
p2121
(dp2122
Vcategory
p2123
VPolitician
p2124
sVid
p2125
V118250504903757
p2126
sVname
p2127
V\u99ac\u82f1\u4e5d\u7e3d\u7d71
p2128
ssg12
(lp2129
(dp2130
Vfrom
p2131
(dp2132
Vname
p2133
V\u90ed\u5c11\u5d34
p2134
sVid
p2135
V1647223151
p2136
ssVmessage
p2137
V-.-
p2138
sVid
p2139
V118250504903757_515356115193192_73962341
p2140
sa(dp2141
Vfrom
p2142
(dp2143
Vname
p2144
V\u5289\u884d\u5fb7
p2145
sVid
p2146
V100003988108781
p2147
ssVmessage
p2148
V\u7e3d\u7d71\u597d\u68d2
p2149
sVid
p2150
V118250504903757_515356115193192_73962343
p2151
sa(dp2152
Vfrom
p2153
(dp2154
Vname
p2155
VSky Lin
p2156
sVid
p2157
V100001666623908
p2158
ssVmessage
p2159
V@@
p2160
sVid
p2161
V118250504903757_515356115193192_73962346
p2162
sa(dp2163
Vfrom
p2164
(dp2165
Vname
p2166
V\u5289\u6021\u8fb0
p2167
sVid
p2168
V100000113773107
p2169
ssVmessage
p2170
V\u7e3d\u7d71\u52a0\u6cb9!
p2171
sVid
p2172
V118250504903757_515356115193192_73962345
p2173
sa(dp2174
Vfrom
p2175
(dp2176
Vname
p2177
V\u5289\u59dd\u5100
p2178
sVid
p2179
V100000247650173
p2180
ssVmessage
p2181
V\u65e9\u5b89
p2182
sVid
p2183
V118250504903757_515356115193192_73962347
p2184
sa(dp2185
Vfrom
p2186
(dp2187
Vname
p2188
V\u9ec3\u7965\u683c
p2189
sVid
p2190
V100000263192084
p2191
ssVmessage
p2192
V\u6211\u89ba\u5f97\u4e0d\u53ea\u4e00\u500b\u311d
p2193
sVid
p2194
V118250504903757_515356115193192_73962349
p2195
sa(dp2196
Vfrom
p2197
(dp2198
Vname
p2199
VYun An Yeh
p2200
sVid
p2201
V100000099461339
p2202
ssVmessage
p2203
V\u99ac\u5f8c\u7832
p2204
sVid
p2205
V118250504903757_515356115193192_73962351
p2206
sa(dp2207
Vfrom
p2208
(dp2209
Vname
p2210
V\u9ad8\u5d07\u8000
p2211
sVid
p2212
V100001868140390
p2213
ssVmessage
p2214
V\u99ac\u7e3d\u7d71\u88ab\u8eab\u908a\u7684\u4eba\u80cc\u53db\u4e86....
p2215
sVid
p2216
V118250504903757_515356115193192_73962353
p2217
sa(dp2218
Vfrom
p2219
(dp2220
Vname
p2221
V\u7d00\u5409\u52dd
p2222
sVid
p2223
V100000385432037
p2224
ssVmessage
p2225
V\u5565...\u6797\u671d\u537f\u600e\u9ebc\u8aaa
p2226
sVid
p2227
V118250504903757_515356115193192_73962352
p2228
sa(dp2229
Vfrom
p2230
(dp2231
Vname
p2232
V\u9673\u93ae\u5b87
p2233
sVid
p2234
V1789332488
p2235
ssVmessage
p2236
V\u8b49\u660e\u4e86\u53f8\u6cd5\u7684\u516c\u6b63\u6027......\u8981\u662f\u7da0\u57f7\u653f\u90fd\u88ab\u8b77\u77ed\u63a9\u84cb\u4e86....
p2237
sVid
p2238
V118250504903757_515356115193192_73962354
p2239
sasVupdated_time
p2240
V2013-03-29T02:18:56+0000
p2241
sVlikes
p2242
(dp2243
Vcount
p2244
I21753
ssVmessage
p2245
V\u5c0d\u65bc\u8cf4\u7d20\u5982\u8b70\u54e1\u6d89\u5165\u53f8\u6cd5\u6848\u4ef6\uff0c\u6211\u611f\u5230\u9707\u9a5a\u8207\u75db\u5fc3\uff01\u8cf4\u8b70\u54e1\u662f\u6211\u5011\u4e00\u8def\u4ee5\u4f86\u7684\u5718\u968a\u5925\u4f34\uff0c\u77e5\u9053\u9019\u500b\u8a0a\u606f\uff0c\u8b93\u6211\u975e\u5e38\u7684\u96e3\u904e\u3002\u000a\u000a\u6211\u652f\u6301\u53f8\u6cd5\u6a5f\u95dc\uff0c\u4e0d\u8a2d\u5e95\u9650\uff0c\u6709\u5f0a\u5c31\u8fa6\u3002\u6e05\u5ec9\u6c92\u6709\u6a21\u7cca\u5730\u5e36\uff0c\u4efb\u4f55\u4eba\uff0c\u4e0d\u5206\u9ee8\u6d3e\u3001\u4e0d\u554f\u8eab\u5206\uff0c\u53ea\u8981\u6d89\u53ca\u8caa\u7006\uff0c\u5c31\u5fc5\u9808\u53d7\u5230\u6cd5\u5f8b\u7684\u5236\u88c1\uff0c\u9019\u662f\u6211\u5805\u5b9a\u7684\u4fe1\u5ff5\u3002\u53f8\u6cd5\u53ea\u6709\u4e00\u500b\u6a19\u6e96\uff0c\u6211\u5011\u4e00\u5b9a\u8981\u5c0a\u91cd\u3002\u000a \u000a\u8cf4\u8b70\u54e1\u6d89\u53ca\u7684\u6848\u4ef6\uff0c\u76f8\u95dc\u7684\u53f8\u6cd5\u8abf\u67e5\u5df2\u7d93\u958b\u59cb\uff0c\u6848\u4ef6\u771f\u76f8\u9084\u5f85\u91d0\u6e05\uff0c\u6211\u5011\u5c0d\u53f8\u6cd5\u8868\u9054\u767e\u5206\u4e4b\u767e\u7684\u5c0a\u91cd\uff0c\u5168\u529b\u652f\u6301\u53f8\u6cd5\u6a5f\u95dc\u52ff\u6789\u52ff\u7e31\u3001\u5075\u8fa6\u5230\u5e95\u3002\u4e5f\u5e0c\u671b\u8cf4\u8b70\u54e1\u52c7\u65bc\u9762\u5c0d\u53f8\u6cd5\uff0c\u6e05\u695a\u4ea4\u5f85\uff0c\u8b93\u6848\u4ef6\u771f\u76f8\u65e9\u65e5\u5927\u767d\u3002\u000a \u000a\u6211\u66fe\u8aaa\u904e\uff0c\u6e05\u5ec9\u662f\u6211\u7684\u751f\u547d\uff0c\u6211\u500b\u4eba\u4e5f\u4e00\u76f4\u5805\u6301\u6e05\u767d\u554f\u653f\u3001\u5949\u516c\u5b88\u6cd5\uff0c\u4f46\u63a5\u9023\u6709\u9ee8\u54e1\u540c\u5fd7\u6d89\u5165\u5f0a\u6848\uff0c\u91cd\u50b7\u570b\u6c11\u9ee8\u7684\u5f62\u8c61\uff0c\u9019\u4e00\u9ede\uff0c\u8eab\u70ba\u9ee8\u4e3b\u5e2d\uff0c\u6211\u8cac\u7121\u65c1\u8cb8\uff0c\u5fc5\u9808\u627f\u64d4\u5916\u754c\u7684\u6240\u6709\u6279\u8a55\u8207\u8cac\u96e3\uff0c\u4e5f\u8981\u7a4d\u6975\u8ca0\u8d77\u76e3\u7763\u8207\u6539\u9769\u7684\u8cac\u4efb\u3002\u5728\u6b64\uff0c\u6211\u8981\u5411\u5168\u9ad4\u9ee8\u54e1\u53ca\u570b\u4eba\u9053\u6b49\u3002\u000a \u000a\u8dcc\u5012\uff0c\u5c31\u8981\u5728\u539f\u5730\u722c\u8d77\u4f86\uff0c\u6211\u5011\u5fc5\u9808\u75db\u5b9a\u601d\u75db\u3001\u6df1\u5207\u53cd\u7701\uff0c\u6709\u82e5\u5e72\u9ee8\u54e1\u540c\u5fd7\u5728\u6e05\u5ec9\u4e0a\u8d70\u932f\u4e86\u8def\uff0c\u5176\u4ed6\u7684\u9ee8\u54e1\u540c\u5fd7\u5c31\u66f4\u8981\u6212\u614e\u6050\u61fc\u3001\u5805\u6301\u6e05\u5ec9\uff0c\u4e0d\u5bb9\u518d\u6709\u534a\u5206\u8e30\u8d8a\u3002
p2246
sVid
p2247
V118250504903757_515356115193192
p2248
sVcomments
p2249
(dp2250
Vcount
p2251
I12003
ssas.